
bomb:     file format elf64-x86-64


Disassembly of section .init:

0000000000400c10 <_init>:
  400c10:	48 83 ec 08          	sub    $0x8,%rsp
  400c14:	48 8b 05 dd 23 20 00 	mov    0x2023dd(%rip),%rax        # 602ff8 <__gmon_start__>
  400c1b:	48 85 c0             	test   %rax,%rax
  400c1e:	74 02                	je     400c22 <_init+0x12>
  400c20:	ff d0                	callq  *%rax
  400c22:	48 83 c4 08          	add    $0x8,%rsp
  400c26:	c3                   	retq   

Disassembly of section .plt:

0000000000400c30 <.plt>:
  400c30:	ff 35 d2 23 20 00    	pushq  0x2023d2(%rip)        # 603008 <_GLOBAL_OFFSET_TABLE_+0x8>
  400c36:	ff 25 d4 23 20 00    	jmpq   *0x2023d4(%rip)        # 603010 <_GLOBAL_OFFSET_TABLE_+0x10>
  400c3c:	0f 1f 40 00          	nopl   0x0(%rax)

0000000000400c40 <getenv@plt>:
  400c40:	ff 25 d2 23 20 00    	jmpq   *0x2023d2(%rip)        # 603018 <getenv@GLIBC_2.2.5>
  400c46:	68 00 00 00 00       	pushq  $0x0
  400c4b:	e9 e0 ff ff ff       	jmpq   400c30 <.plt>

0000000000400c50 <__errno_location@plt>:
  400c50:	ff 25 ca 23 20 00    	jmpq   *0x2023ca(%rip)        # 603020 <__errno_location@GLIBC_2.2.5>
  400c56:	68 01 00 00 00       	pushq  $0x1
  400c5b:	e9 d0 ff ff ff       	jmpq   400c30 <.plt>

0000000000400c60 <strcpy@plt>:
  400c60:	ff 25 c2 23 20 00    	jmpq   *0x2023c2(%rip)        # 603028 <strcpy@GLIBC_2.2.5>
  400c66:	68 02 00 00 00       	pushq  $0x2
  400c6b:	e9 c0 ff ff ff       	jmpq   400c30 <.plt>

0000000000400c70 <puts@plt>:
  400c70:	ff 25 ba 23 20 00    	jmpq   *0x2023ba(%rip)        # 603030 <puts@GLIBC_2.2.5>
  400c76:	68 03 00 00 00       	pushq  $0x3
  400c7b:	e9 b0 ff ff ff       	jmpq   400c30 <.plt>

0000000000400c80 <write@plt>:
  400c80:	ff 25 b2 23 20 00    	jmpq   *0x2023b2(%rip)        # 603038 <write@GLIBC_2.2.5>
  400c86:	68 04 00 00 00       	pushq  $0x4
  400c8b:	e9 a0 ff ff ff       	jmpq   400c30 <.plt>

0000000000400c90 <fclose@plt>:
  400c90:	ff 25 aa 23 20 00    	jmpq   *0x2023aa(%rip)        # 603040 <fclose@GLIBC_2.2.5>
  400c96:	68 05 00 00 00       	pushq  $0x5
  400c9b:	e9 90 ff ff ff       	jmpq   400c30 <.plt>

0000000000400ca0 <strlen@plt>:
  400ca0:	ff 25 a2 23 20 00    	jmpq   *0x2023a2(%rip)        # 603048 <strlen@GLIBC_2.2.5>
  400ca6:	68 06 00 00 00       	pushq  $0x6
  400cab:	e9 80 ff ff ff       	jmpq   400c30 <.plt>

0000000000400cb0 <system@plt>:
  400cb0:	ff 25 9a 23 20 00    	jmpq   *0x20239a(%rip)        # 603050 <system@GLIBC_2.2.5>
  400cb6:	68 07 00 00 00       	pushq  $0x7
  400cbb:	e9 70 ff ff ff       	jmpq   400c30 <.plt>

0000000000400cc0 <htons@plt>:
  400cc0:	ff 25 92 23 20 00    	jmpq   *0x202392(%rip)        # 603058 <htons@GLIBC_2.2.5>
  400cc6:	68 08 00 00 00       	pushq  $0x8
  400ccb:	e9 60 ff ff ff       	jmpq   400c30 <.plt>

0000000000400cd0 <printf@plt>:
  400cd0:	ff 25 8a 23 20 00    	jmpq   *0x20238a(%rip)        # 603060 <printf@GLIBC_2.2.5>
  400cd6:	68 09 00 00 00       	pushq  $0x9
  400cdb:	e9 50 ff ff ff       	jmpq   400c30 <.plt>

0000000000400ce0 <rewind@plt>:
  400ce0:	ff 25 82 23 20 00    	jmpq   *0x202382(%rip)        # 603068 <rewind@GLIBC_2.2.5>
  400ce6:	68 0a 00 00 00       	pushq  $0xa
  400ceb:	e9 40 ff ff ff       	jmpq   400c30 <.plt>

0000000000400cf0 <dup@plt>:
  400cf0:	ff 25 7a 23 20 00    	jmpq   *0x20237a(%rip)        # 603070 <dup@GLIBC_2.2.5>
  400cf6:	68 0b 00 00 00       	pushq  $0xb
  400cfb:	e9 30 ff ff ff       	jmpq   400c30 <.plt>

0000000000400d00 <close@plt>:
  400d00:	ff 25 72 23 20 00    	jmpq   *0x202372(%rip)        # 603078 <close@GLIBC_2.2.5>
  400d06:	68 0c 00 00 00       	pushq  $0xc
  400d0b:	e9 20 ff ff ff       	jmpq   400c30 <.plt>

0000000000400d10 <fputc@plt>:
  400d10:	ff 25 6a 23 20 00    	jmpq   *0x20236a(%rip)        # 603080 <fputc@GLIBC_2.2.5>
  400d16:	68 0d 00 00 00       	pushq  $0xd
  400d1b:	e9 10 ff ff ff       	jmpq   400c30 <.plt>

0000000000400d20 <fgets@plt>:
  400d20:	ff 25 62 23 20 00    	jmpq   *0x202362(%rip)        # 603088 <fgets@GLIBC_2.2.5>
  400d26:	68 0e 00 00 00       	pushq  $0xe
  400d2b:	e9 00 ff ff ff       	jmpq   400c30 <.plt>

0000000000400d30 <tmpfile@plt>:
  400d30:	ff 25 5a 23 20 00    	jmpq   *0x20235a(%rip)        # 603090 <tmpfile@GLIBC_2.2.5>
  400d36:	68 0f 00 00 00       	pushq  $0xf
  400d3b:	e9 f0 fe ff ff       	jmpq   400c30 <.plt>

0000000000400d40 <signal@plt>:
  400d40:	ff 25 52 23 20 00    	jmpq   *0x202352(%rip)        # 603098 <signal@GLIBC_2.2.5>
  400d46:	68 10 00 00 00       	pushq  $0x10
  400d4b:	e9 e0 fe ff ff       	jmpq   400c30 <.plt>

0000000000400d50 <gethostbyname@plt>:
  400d50:	ff 25 4a 23 20 00    	jmpq   *0x20234a(%rip)        # 6030a0 <gethostbyname@GLIBC_2.2.5>
  400d56:	68 11 00 00 00       	pushq  $0x11
  400d5b:	e9 d0 fe ff ff       	jmpq   400c30 <.plt>

0000000000400d60 <fprintf@plt>:
  400d60:	ff 25 42 23 20 00    	jmpq   *0x202342(%rip)        # 6030a8 <fprintf@GLIBC_2.2.5>
  400d66:	68 12 00 00 00       	pushq  $0x12
  400d6b:	e9 c0 fe ff ff       	jmpq   400c30 <.plt>

0000000000400d70 <inet_pton@plt>:
  400d70:	ff 25 3a 23 20 00    	jmpq   *0x20233a(%rip)        # 6030b0 <inet_pton@GLIBC_2.2.5>
  400d76:	68 13 00 00 00       	pushq  $0x13
  400d7b:	e9 b0 fe ff ff       	jmpq   400c30 <.plt>

0000000000400d80 <fflush@plt>:
  400d80:	ff 25 32 23 20 00    	jmpq   *0x202332(%rip)        # 6030b8 <fflush@GLIBC_2.2.5>
  400d86:	68 14 00 00 00       	pushq  $0x14
  400d8b:	e9 a0 fe ff ff       	jmpq   400c30 <.plt>

0000000000400d90 <__isoc99_sscanf@plt>:
  400d90:	ff 25 2a 23 20 00    	jmpq   *0x20232a(%rip)        # 6030c0 <__isoc99_sscanf@GLIBC_2.7>
  400d96:	68 15 00 00 00       	pushq  $0x15
  400d9b:	e9 90 fe ff ff       	jmpq   400c30 <.plt>

0000000000400da0 <bcopy@plt>:
  400da0:	ff 25 22 23 20 00    	jmpq   *0x202322(%rip)        # 6030c8 <bcopy@GLIBC_2.2.5>
  400da6:	68 16 00 00 00       	pushq  $0x16
  400dab:	e9 80 fe ff ff       	jmpq   400c30 <.plt>

0000000000400db0 <cuserid@plt>:
  400db0:	ff 25 1a 23 20 00    	jmpq   *0x20231a(%rip)        # 6030d0 <cuserid@GLIBC_2.2.5>
  400db6:	68 17 00 00 00       	pushq  $0x17
  400dbb:	e9 70 fe ff ff       	jmpq   400c30 <.plt>

0000000000400dc0 <fopen@plt>:
  400dc0:	ff 25 12 23 20 00    	jmpq   *0x202312(%rip)        # 6030d8 <fopen@GLIBC_2.2.5>
  400dc6:	68 18 00 00 00       	pushq  $0x18
  400dcb:	e9 60 fe ff ff       	jmpq   400c30 <.plt>

0000000000400dd0 <bzero@plt>:
  400dd0:	ff 25 0a 23 20 00    	jmpq   *0x20230a(%rip)        # 6030e0 <bzero@GLIBC_2.2.5>
  400dd6:	68 19 00 00 00       	pushq  $0x19
  400ddb:	e9 50 fe ff ff       	jmpq   400c30 <.plt>

0000000000400de0 <atoi@plt>:
  400de0:	ff 25 02 23 20 00    	jmpq   *0x202302(%rip)        # 6030e8 <atoi@GLIBC_2.2.5>
  400de6:	68 1a 00 00 00       	pushq  $0x1a
  400deb:	e9 40 fe ff ff       	jmpq   400c30 <.plt>

0000000000400df0 <strcat@plt>:
  400df0:	ff 25 fa 22 20 00    	jmpq   *0x2022fa(%rip)        # 6030f0 <strcat@GLIBC_2.2.5>
  400df6:	68 1b 00 00 00       	pushq  $0x1b
  400dfb:	e9 30 fe ff ff       	jmpq   400c30 <.plt>

0000000000400e00 <sprintf@plt>:
  400e00:	ff 25 f2 22 20 00    	jmpq   *0x2022f2(%rip)        # 6030f8 <sprintf@GLIBC_2.2.5>
  400e06:	68 1c 00 00 00       	pushq  $0x1c
  400e0b:	e9 20 fe ff ff       	jmpq   400c30 <.plt>

0000000000400e10 <exit@plt>:
  400e10:	ff 25 ea 22 20 00    	jmpq   *0x2022ea(%rip)        # 603100 <exit@GLIBC_2.2.5>
  400e16:	68 1d 00 00 00       	pushq  $0x1d
  400e1b:	e9 10 fe ff ff       	jmpq   400c30 <.plt>

0000000000400e20 <connect@plt>:
  400e20:	ff 25 e2 22 20 00    	jmpq   *0x2022e2(%rip)        # 603108 <connect@GLIBC_2.2.5>
  400e26:	68 1e 00 00 00       	pushq  $0x1e
  400e2b:	e9 00 fe ff ff       	jmpq   400c30 <.plt>

0000000000400e30 <fwrite@plt>:
  400e30:	ff 25 da 22 20 00    	jmpq   *0x2022da(%rip)        # 603110 <fwrite@GLIBC_2.2.5>
  400e36:	68 1f 00 00 00       	pushq  $0x1f
  400e3b:	e9 f0 fd ff ff       	jmpq   400c30 <.plt>

0000000000400e40 <sleep@plt>:
  400e40:	ff 25 d2 22 20 00    	jmpq   *0x2022d2(%rip)        # 603118 <sleep@GLIBC_2.2.5>
  400e46:	68 20 00 00 00       	pushq  $0x20
  400e4b:	e9 e0 fd ff ff       	jmpq   400c30 <.plt>

0000000000400e50 <__ctype_b_loc@plt>:
  400e50:	ff 25 ca 22 20 00    	jmpq   *0x2022ca(%rip)        # 603120 <__ctype_b_loc@GLIBC_2.3>
  400e56:	68 21 00 00 00       	pushq  $0x21
  400e5b:	e9 d0 fd ff ff       	jmpq   400c30 <.plt>

0000000000400e60 <socket@plt>:
  400e60:	ff 25 c2 22 20 00    	jmpq   *0x2022c2(%rip)        # 603128 <socket@GLIBC_2.2.5>
  400e66:	68 22 00 00 00       	pushq  $0x22
  400e6b:	e9 c0 fd ff ff       	jmpq   400c30 <.plt>

Disassembly of section .text:

0000000000400e70 <_start>:
  400e70:	31 ed                	xor    %ebp,%ebp
  400e72:	49 89 d1             	mov    %rdx,%r9
  400e75:	5e                   	pop    %rsi
  400e76:	48 89 e2             	mov    %rsp,%rdx
  400e79:	48 83 e4 f0          	and    $0xfffffffffffffff0,%rsp
  400e7d:	50                   	push   %rax
  400e7e:	54                   	push   %rsp
  400e7f:	49 c7 c0 40 22 40 00 	mov    $0x402240,%r8
  400e86:	48 c7 c1 d0 21 40 00 	mov    $0x4021d0,%rcx
  400e8d:	48 c7 c7 66 0f 40 00 	mov    $0x400f66,%rdi
  400e94:	ff 15 56 21 20 00    	callq  *0x202156(%rip)        # 602ff0 <__libc_start_main@GLIBC_2.2.5>
  400e9a:	f4                   	hlt    
  400e9b:	0f 1f 44 00 00       	nopl   0x0(%rax,%rax,1)

0000000000400ea0 <deregister_tm_clones>:
  400ea0:	b8 ff 37 60 00       	mov    $0x6037ff,%eax
  400ea5:	55                   	push   %rbp
  400ea6:	48 2d f8 37 60 00    	sub    $0x6037f8,%rax
  400eac:	48 83 f8 0e          	cmp    $0xe,%rax
  400eb0:	48 89 e5             	mov    %rsp,%rbp
  400eb3:	76 1b                	jbe    400ed0 <deregister_tm_clones+0x30>
  400eb5:	b8 00 00 00 00       	mov    $0x0,%eax
  400eba:	48 85 c0             	test   %rax,%rax
  400ebd:	74 11                	je     400ed0 <deregister_tm_clones+0x30>
  400ebf:	5d                   	pop    %rbp
  400ec0:	bf f8 37 60 00       	mov    $0x6037f8,%edi
  400ec5:	ff e0                	jmpq   *%rax
  400ec7:	66 0f 1f 84 00 00 00 	nopw   0x0(%rax,%rax,1)
  400ece:	00 00 
  400ed0:	5d                   	pop    %rbp
  400ed1:	c3                   	retq   
  400ed2:	0f 1f 40 00          	nopl   0x0(%rax)
  400ed6:	66 2e 0f 1f 84 00 00 	nopw   %cs:0x0(%rax,%rax,1)
  400edd:	00 00 00 

0000000000400ee0 <register_tm_clones>:
  400ee0:	be f8 37 60 00       	mov    $0x6037f8,%esi
  400ee5:	55                   	push   %rbp
  400ee6:	48 81 ee f8 37 60 00 	sub    $0x6037f8,%rsi
  400eed:	48 c1 fe 03          	sar    $0x3,%rsi
  400ef1:	48 89 e5             	mov    %rsp,%rbp
  400ef4:	48 89 f0             	mov    %rsi,%rax
  400ef7:	48 c1 e8 3f          	shr    $0x3f,%rax
  400efb:	48 01 c6             	add    %rax,%rsi
  400efe:	48 d1 fe             	sar    %rsi
  400f01:	74 15                	je     400f18 <register_tm_clones+0x38>
  400f03:	b8 00 00 00 00       	mov    $0x0,%eax
  400f08:	48 85 c0             	test   %rax,%rax
  400f0b:	74 0b                	je     400f18 <register_tm_clones+0x38>
  400f0d:	5d                   	pop    %rbp
  400f0e:	bf f8 37 60 00       	mov    $0x6037f8,%edi
  400f13:	ff e0                	jmpq   *%rax
  400f15:	0f 1f 00             	nopl   (%rax)
  400f18:	5d                   	pop    %rbp
  400f19:	c3                   	retq   
  400f1a:	66 0f 1f 44 00 00    	nopw   0x0(%rax,%rax,1)

0000000000400f20 <__do_global_dtors_aux>:
  400f20:	80 3d f1 28 20 00 00 	cmpb   $0x0,0x2028f1(%rip)        # 603818 <completed.6972>
  400f27:	75 11                	jne    400f3a <__do_global_dtors_aux+0x1a>
  400f29:	55                   	push   %rbp
  400f2a:	48 89 e5             	mov    %rsp,%rbp
  400f2d:	e8 6e ff ff ff       	callq  400ea0 <deregister_tm_clones>
  400f32:	5d                   	pop    %rbp
  400f33:	c6 05 de 28 20 00 01 	movb   $0x1,0x2028de(%rip)        # 603818 <completed.6972>
  400f3a:	f3 c3                	repz retq 
  400f3c:	0f 1f 40 00          	nopl   0x0(%rax)

0000000000400f40 <frame_dummy>:
  400f40:	bf 18 2e 60 00       	mov    $0x602e18,%edi
  400f45:	48 83 3f 00          	cmpq   $0x0,(%rdi)
  400f49:	75 05                	jne    400f50 <frame_dummy+0x10>
  400f4b:	eb 93                	jmp    400ee0 <register_tm_clones>
  400f4d:	0f 1f 00             	nopl   (%rax)
  400f50:	b8 00 00 00 00       	mov    $0x0,%eax
  400f55:	48 85 c0             	test   %rax,%rax
  400f58:	74 f1                	je     400f4b <frame_dummy+0xb>
  400f5a:	55                   	push   %rbp
  400f5b:	48 89 e5             	mov    %rsp,%rbp
  400f5e:	ff d0                	callq  *%rax
  400f60:	5d                   	pop    %rbp
  400f61:	e9 7a ff ff ff       	jmpq   400ee0 <register_tm_clones>

0000000000400f66 <main>:
  400f66:	55                   	push   %rbp
  400f67:	48 89 e5             	mov    %rsp,%rbp
  400f6a:	48 83 ec 20          	sub    $0x20,%rsp
  400f6e:	89 7d ec             	mov    %edi,-0x14(%rbp)
  400f71:	48 89 75 e0          	mov    %rsi,-0x20(%rbp)
  400f75:	83 7d ec 01          	cmpl   $0x1,-0x14(%rbp)
  400f79:	75 13                	jne    400f8e <main+0x28>
  400f7b:	48 8b 05 8e 28 20 00 	mov    0x20288e(%rip),%rax        # 603810 <stdin@@GLIBC_2.2.5>
  400f82:	48 89 05 97 28 20 00 	mov    %rax,0x202897(%rip)        # 603820 <infile>
  400f89:	e9 88 00 00 00       	jmpq   401016 <main+0xb0>
  400f8e:	83 7d ec 02          	cmpl   $0x2,-0x14(%rbp)
  400f92:	75 5d                	jne    400ff1 <main+0x8b>
  400f94:	48 8b 45 e0          	mov    -0x20(%rbp),%rax
  400f98:	48 83 c0 08          	add    $0x8,%rax
  400f9c:	48 8b 00             	mov    (%rax),%rax
  400f9f:	48 8d 35 b2 12 00 00 	lea    0x12b2(%rip),%rsi        # 402258 <_IO_stdin_used+0x8>
  400fa6:	48 89 c7             	mov    %rax,%rdi
  400fa9:	e8 12 fe ff ff       	callq  400dc0 <fopen@plt>
  400fae:	48 89 05 6b 28 20 00 	mov    %rax,0x20286b(%rip)        # 603820 <infile>
  400fb5:	48 8b 05 64 28 20 00 	mov    0x202864(%rip),%rax        # 603820 <infile>
  400fbc:	48 85 c0             	test   %rax,%rax
  400fbf:	75 55                	jne    401016 <main+0xb0>
  400fc1:	48 8b 45 e0          	mov    -0x20(%rbp),%rax
  400fc5:	48 83 c0 08          	add    $0x8,%rax
  400fc9:	48 8b 10             	mov    (%rax),%rdx
  400fcc:	48 8b 45 e0          	mov    -0x20(%rbp),%rax
  400fd0:	48 8b 00             	mov    (%rax),%rax
  400fd3:	48 89 c6             	mov    %rax,%rsi
  400fd6:	48 8d 3d 7d 12 00 00 	lea    0x127d(%rip),%rdi        # 40225a <_IO_stdin_used+0xa>
  400fdd:	b8 00 00 00 00       	mov    $0x0,%eax
  400fe2:	e8 e9 fc ff ff       	callq  400cd0 <printf@plt>
  400fe7:	bf 08 00 00 00       	mov    $0x8,%edi
  400fec:	e8 1f fe ff ff       	callq  400e10 <exit@plt>
  400ff1:	48 8b 45 e0          	mov    -0x20(%rbp),%rax
  400ff5:	48 8b 00             	mov    (%rax),%rax
  400ff8:	48 89 c6             	mov    %rax,%rsi
  400ffb:	48 8d 3d 75 12 00 00 	lea    0x1275(%rip),%rdi        # 402277 <_IO_stdin_used+0x27>
  401002:	b8 00 00 00 00       	mov    $0x0,%eax
  401007:	e8 c4 fc ff ff       	callq  400cd0 <printf@plt>
  40100c:	bf 08 00 00 00       	mov    $0x8,%edi
  401011:	e8 fa fd ff ff       	callq  400e10 <exit@plt>
  401016:	e8 04 08 00 00       	callq  40181f <initialize_bomb>
  40101b:	48 8d 3d 76 12 00 00 	lea    0x1276(%rip),%rdi        # 402298 <_IO_stdin_used+0x48>
  401022:	e8 49 fc ff ff       	callq  400c70 <puts@plt>
  401027:	48 8d 3d aa 12 00 00 	lea    0x12aa(%rip),%rdi        # 4022d8 <_IO_stdin_used+0x88>
  40102e:	e8 3d fc ff ff       	callq  400c70 <puts@plt>
  401033:	e8 cf 08 00 00       	callq  401907 <read_line>
  401038:	48 89 45 f8          	mov    %rax,-0x8(%rbp)
  40103c:	48 8b 45 f8          	mov    -0x8(%rbp),%rax
  401040:	48 89 c7             	mov    %rax,%rdi
  401043:	e8 ca 00 00 00       	callq  401112 <phase_1>
  401048:	e8 d1 10 00 00       	callq  40211e <phase_defused>
  40104d:	48 8d 3d b4 12 00 00 	lea    0x12b4(%rip),%rdi        # 402308 <_IO_stdin_used+0xb8>
  401054:	e8 17 fc ff ff       	callq  400c70 <puts@plt>
  401059:	e8 a9 08 00 00       	callq  401907 <read_line>
  40105e:	48 89 45 f8          	mov    %rax,-0x8(%rbp)
  401062:	48 8b 45 f8          	mov    -0x8(%rbp),%rax
  401066:	48 89 c7             	mov    %rax,%rdi
  401069:	e8 cf 00 00 00       	callq  40113d <phase_2>
  40106e:	e8 ab 10 00 00       	callq  40211e <phase_defused>
  401073:	48 8d 3d b7 12 00 00 	lea    0x12b7(%rip),%rdi        # 402331 <_IO_stdin_used+0xe1>
  40107a:	e8 f1 fb ff ff       	callq  400c70 <puts@plt>
  40107f:	e8 83 08 00 00       	callq  401907 <read_line>
  401084:	48 89 45 f8          	mov    %rax,-0x8(%rbp)
  401088:	48 8b 45 f8          	mov    -0x8(%rbp),%rax
  40108c:	48 89 c7             	mov    %rax,%rdi
  40108f:	e8 ff 00 00 00       	callq  401193 <phase_3>
  401094:	e8 85 10 00 00       	callq  40211e <phase_defused>
  401099:	48 8d 3d af 12 00 00 	lea    0x12af(%rip),%rdi        # 40234f <_IO_stdin_used+0xff>
  4010a0:	e8 cb fb ff ff       	callq  400c70 <puts@plt>
  4010a5:	e8 5d 08 00 00       	callq  401907 <read_line>
  4010aa:	48 89 45 f8          	mov    %rax,-0x8(%rbp)
  4010ae:	48 8b 45 f8          	mov    -0x8(%rbp),%rax
  4010b2:	48 89 c7             	mov    %rax,%rdi
  4010b5:	e8 d9 01 00 00       	callq  401293 <phase_4>
  4010ba:	e8 5f 10 00 00       	callq  40211e <phase_defused>
  4010bf:	48 8d 3d 9a 12 00 00 	lea    0x129a(%rip),%rdi        # 402360 <_IO_stdin_used+0x110>
  4010c6:	e8 a5 fb ff ff       	callq  400c70 <puts@plt>
  4010cb:	e8 37 08 00 00       	callq  401907 <read_line>
  4010d0:	48 89 45 f8          	mov    %rax,-0x8(%rbp)
  4010d4:	48 8b 45 f8          	mov    -0x8(%rbp),%rax
  4010d8:	48 89 c7             	mov    %rax,%rdi
  4010db:	e8 0e 02 00 00       	callq  4012ee <phase_5>
  4010e0:	e8 39 10 00 00       	callq  40211e <phase_defused>
  4010e5:	48 8d 3d 98 12 00 00 	lea    0x1298(%rip),%rdi        # 402384 <_IO_stdin_used+0x134>
  4010ec:	e8 7f fb ff ff       	callq  400c70 <puts@plt>
  4010f1:	e8 11 08 00 00       	callq  401907 <read_line>
  4010f6:	48 89 45 f8          	mov    %rax,-0x8(%rbp)
  4010fa:	48 8b 45 f8          	mov    -0x8(%rbp),%rax
  4010fe:	48 89 c7             	mov    %rax,%rdi
  401101:	e8 31 03 00 00       	callq  401437 <phase_6>
  401106:	e8 13 10 00 00       	callq  40211e <phase_defused>
  40110b:	b8 00 00 00 00       	mov    $0x0,%eax
  401110:	c9                   	leaveq 
  401111:	c3                   	retq   

0000000000401112 <phase_1>:
  401112:	55                   	push   %rbp
  401113:	48 89 e5             	mov    %rsp,%rbp
  401116:	48 83 ec 10          	sub    $0x10,%rsp
  40111a:	48 89 7d f8          	mov    %rdi,-0x8(%rbp)
  40111e:	48 8b 45 f8          	mov    -0x8(%rbp),%rax
  401122:	48 8d 35 7f 12 00 00 	lea    0x127f(%rip),%rsi        # 4023a8 <_IO_stdin_used+0x158>
  401129:	48 89 c7             	mov    %rax,%rdi
  40112c:	e8 78 05 00 00       	callq  4016a9 <strings_not_equal>
  401131:	85 c0                	test   %eax,%eax
  401133:	74 05                	je     40113a <phase_1+0x28>
  401135:	e8 a8 0f 00 00       	callq  4020e2 <explode_bomb>
  40113a:	90                   	nop
  40113b:	c9                   	leaveq 
  40113c:	c3                   	retq   

000000000040113d <phase_2>:
  40113d:	55                   	push   %rbp
  40113e:	48 89 e5             	mov    %rsp,%rbp
  401141:	48 83 ec 30          	sub    $0x30,%rsp
  401145:	48 89 7d d8          	mov    %rdi,-0x28(%rbp)
  401149:	48 8d 55 e0          	lea    -0x20(%rbp),%rdx
  40114d:	48 8b 45 d8          	mov    -0x28(%rbp),%rax
  401151:	48 89 d6             	mov    %rdx,%rsi
  401154:	48 89 c7             	mov    %rax,%rdi
  401157:	e8 b0 04 00 00       	callq  40160c <read_six_numbers>
  40115c:	c7 45 fc 01 00 00 00 	movl   $0x1,-0x4(%rbp)
  401163:	eb 25                	jmp    40118a <phase_2+0x4d>
  401165:	8b 45 fc             	mov    -0x4(%rbp),%eax
  401168:	48 98                	cltq   
  40116a:	8b 54 85 e0          	mov    -0x20(%rbp,%rax,4),%edx
  40116e:	8b 45 fc             	mov    -0x4(%rbp),%eax
  401171:	83 e8 01             	sub    $0x1,%eax
  401174:	48 98                	cltq   
  401176:	8b 44 85 e0          	mov    -0x20(%rbp,%rax,4),%eax
  40117a:	83 c0 05             	add    $0x5,%eax
  40117d:	39 c2                	cmp    %eax,%edx
  40117f:	74 05                	je     401186 <phase_2+0x49>
  401181:	e8 5c 0f 00 00       	callq  4020e2 <explode_bomb>
  401186:	83 45 fc 01          	addl   $0x1,-0x4(%rbp)
  40118a:	83 7d fc 05          	cmpl   $0x5,-0x4(%rbp)
  40118e:	7e d5                	jle    401165 <phase_2+0x28>
  401190:	90                   	nop
  401191:	c9                   	leaveq 
  401192:	c3                   	retq   

0000000000401193 <phase_3>:
  401193:	55                   	push   %rbp
  401194:	48 89 e5             	mov    %rsp,%rbp
  401197:	48 83 ec 20          	sub    $0x20,%rsp
  40119b:	48 89 7d e8          	mov    %rdi,-0x18(%rbp)
  40119f:	c7 45 fc 00 00 00 00 	movl   $0x0,-0x4(%rbp)
  4011a6:	c7 45 f8 00 00 00 00 	movl   $0x0,-0x8(%rbp)
  4011ad:	48 8d 4d f0          	lea    -0x10(%rbp),%rcx
  4011b1:	48 8d 55 f4          	lea    -0xc(%rbp),%rdx
  4011b5:	48 8b 45 e8          	mov    -0x18(%rbp),%rax
  4011b9:	48 8d 35 2a 12 00 00 	lea    0x122a(%rip),%rsi        # 4023ea <_IO_stdin_used+0x19a>
  4011c0:	48 89 c7             	mov    %rax,%rdi
  4011c3:	b8 00 00 00 00       	mov    $0x0,%eax
  4011c8:	e8 c3 fb ff ff       	callq  400d90 <__isoc99_sscanf@plt>
  4011cd:	89 45 f8             	mov    %eax,-0x8(%rbp)
  4011d0:	83 7d f8 01          	cmpl   $0x1,-0x8(%rbp)
  4011d4:	7f 05                	jg     4011db <phase_3+0x48>
  4011d6:	e8 07 0f 00 00       	callq  4020e2 <explode_bomb>
  4011db:	8b 45 f4             	mov    -0xc(%rbp),%eax
  4011de:	83 f8 07             	cmp    $0x7,%eax
  4011e1:	77 6b                	ja     40124e <phase_3+0xbb>
  4011e3:	89 c0                	mov    %eax,%eax
  4011e5:	48 8d 14 85 00 00 00 	lea    0x0(,%rax,4),%rdx
  4011ec:	00 
  4011ed:	48 8d 05 fc 11 00 00 	lea    0x11fc(%rip),%rax        # 4023f0 <_IO_stdin_used+0x1a0>
  4011f4:	8b 04 02             	mov    (%rdx,%rax,1),%eax
  4011f7:	48 63 d0             	movslq %eax,%rdx
  4011fa:	48 8d 05 ef 11 00 00 	lea    0x11ef(%rip),%rax        # 4023f0 <_IO_stdin_used+0x1a0>
  401201:	48 01 d0             	add    %rdx,%rax
  401204:	ff e0                	jmpq   *%rax
  401206:	c7 45 fc 3c 03 00 00 	movl   $0x33c,-0x4(%rbp)
  40120d:	eb 44                	jmp    401253 <phase_3+0xc0>
  40120f:	c7 45 fc a2 03 00 00 	movl   $0x3a2,-0x4(%rbp)
  401216:	eb 3b                	jmp    401253 <phase_3+0xc0>
  401218:	c7 45 fc 73 02 00 00 	movl   $0x273,-0x4(%rbp)
  40121f:	eb 32                	jmp    401253 <phase_3+0xc0>
  401221:	c7 45 fc e6 02 00 00 	movl   $0x2e6,-0x4(%rbp)
  401228:	eb 29                	jmp    401253 <phase_3+0xc0>
  40122a:	c7 45 fc c8 03 00 00 	movl   $0x3c8,-0x4(%rbp)
  401231:	eb 20                	jmp    401253 <phase_3+0xc0>
  401233:	c7 45 fc 5a 02 00 00 	movl   $0x25a,-0x4(%rbp)
  40123a:	eb 17                	jmp    401253 <phase_3+0xc0>
  40123c:	c7 45 fc 46 01 00 00 	movl   $0x146,-0x4(%rbp)
  401243:	eb 0e                	jmp    401253 <phase_3+0xc0>
  401245:	c7 45 fc 51 00 00 00 	movl   $0x51,-0x4(%rbp)
  40124c:	eb 05                	jmp    401253 <phase_3+0xc0>
  40124e:	e8 8f 0e 00 00       	callq  4020e2 <explode_bomb>
  401253:	8b 45 f0             	mov    -0x10(%rbp),%eax
  401256:	39 45 fc             	cmp    %eax,-0x4(%rbp)
  401259:	74 05                	je     401260 <phase_3+0xcd>
  40125b:	e8 82 0e 00 00       	callq  4020e2 <explode_bomb>
  401260:	90                   	nop
  401261:	c9                   	leaveq 
  401262:	c3                   	retq   

0000000000401263 <func4>:
  401263:	55                   	push   %rbp
  401264:	48 89 e5             	mov    %rsp,%rbp
  401267:	48 83 ec 10          	sub    $0x10,%rsp
  40126b:	89 7d fc             	mov    %edi,-0x4(%rbp)
  40126e:	83 7d fc 00          	cmpl   $0x0,-0x4(%rbp)
  401272:	7f 07                	jg     40127b <func4+0x18>
  401274:	b8 01 00 00 00       	mov    $0x1,%eax
  401279:	eb 16                	jmp    401291 <func4+0x2e>
  40127b:	8b 45 fc             	mov    -0x4(%rbp),%eax
  40127e:	83 e8 01             	sub    $0x1,%eax
  401281:	89 c7                	mov    %eax,%edi
  401283:	e8 db ff ff ff       	callq  401263 <func4>
  401288:	89 c2                	mov    %eax,%edx
  40128a:	89 d0                	mov    %edx,%eax
  40128c:	c1 e0 03             	shl    $0x3,%eax
  40128f:	29 d0                	sub    %edx,%eax
  401291:	c9                   	leaveq 
  401292:	c3                   	retq   

0000000000401293 <phase_4>:
  401293:	55                   	push   %rbp
  401294:	48 89 e5             	mov    %rsp,%rbp
  401297:	48 83 ec 20          	sub    $0x20,%rsp
  40129b:	48 89 7d e8          	mov    %rdi,-0x18(%rbp)
  40129f:	48 8d 55 f4          	lea    -0xc(%rbp),%rdx
  4012a3:	48 8b 45 e8          	mov    -0x18(%rbp),%rax
  4012a7:	48 8d 35 62 11 00 00 	lea    0x1162(%rip),%rsi        # 402410 <_IO_stdin_used+0x1c0>
  4012ae:	48 89 c7             	mov    %rax,%rdi
  4012b1:	b8 00 00 00 00       	mov    $0x0,%eax
  4012b6:	e8 d5 fa ff ff       	callq  400d90 <__isoc99_sscanf@plt>
  4012bb:	89 45 fc             	mov    %eax,-0x4(%rbp)
  4012be:	83 7d fc 01          	cmpl   $0x1,-0x4(%rbp)
  4012c2:	75 07                	jne    4012cb <phase_4+0x38>
  4012c4:	8b 45 f4             	mov    -0xc(%rbp),%eax
  4012c7:	85 c0                	test   %eax,%eax
  4012c9:	7f 05                	jg     4012d0 <phase_4+0x3d>
  4012cb:	e8 12 0e 00 00       	callq  4020e2 <explode_bomb>
  4012d0:	8b 45 f4             	mov    -0xc(%rbp),%eax
  4012d3:	89 c7                	mov    %eax,%edi
  4012d5:	e8 89 ff ff ff       	callq  401263 <func4>
  4012da:	89 45 f8             	mov    %eax,-0x8(%rbp)
  4012dd:	81 7d f8 c1 f6 57 00 	cmpl   $0x57f6c1,-0x8(%rbp)
  4012e4:	74 05                	je     4012eb <phase_4+0x58>
  4012e6:	e8 f7 0d 00 00       	callq  4020e2 <explode_bomb>
  4012eb:	90                   	nop
  4012ec:	c9                   	leaveq 
  4012ed:	c3                   	retq   

00000000004012ee <phase_5>:
  4012ee:	55                   	push   %rbp
  4012ef:	48 89 e5             	mov    %rsp,%rbp
  4012f2:	48 83 ec 20          	sub    $0x20,%rsp
  4012f6:	48 89 7d e8          	mov    %rdi,-0x18(%rbp)
  4012fa:	48 8b 45 e8          	mov    -0x18(%rbp),%rax
  4012fe:	48 89 c7             	mov    %rax,%rdi
  401301:	e8 71 03 00 00       	callq  401677 <string_length>
  401306:	89 45 f8             	mov    %eax,-0x8(%rbp)
  401309:	83 7d f8 06          	cmpl   $0x6,-0x8(%rbp)
  40130d:	74 05                	je     401314 <phase_5+0x26>
  40130f:	e8 ce 0d 00 00       	callq  4020e2 <explode_bomb>
  401314:	c7 45 fc 00 00 00 00 	movl   $0x0,-0x4(%rbp)
  40131b:	eb 31                	jmp    40134e <phase_5+0x60>
  40131d:	8b 45 fc             	mov    -0x4(%rbp),%eax
  401320:	48 63 d0             	movslq %eax,%rdx
  401323:	48 8b 45 e8          	mov    -0x18(%rbp),%rax
  401327:	48 01 d0             	add    %rdx,%rax
  40132a:	0f b6 00             	movzbl (%rax),%eax
  40132d:	0f be c0             	movsbl %al,%eax
  401330:	83 e0 0f             	and    $0xf,%eax
  401333:	48 63 d0             	movslq %eax,%rdx
  401336:	48 8d 05 53 23 20 00 	lea    0x202353(%rip),%rax        # 603690 <array.2952>
  40133d:	0f b6 14 02          	movzbl (%rdx,%rax,1),%edx
  401341:	8b 45 fc             	mov    -0x4(%rbp),%eax
  401344:	48 98                	cltq   
  401346:	88 54 05 f1          	mov    %dl,-0xf(%rbp,%rax,1)
  40134a:	83 45 fc 01          	addl   $0x1,-0x4(%rbp)
  40134e:	83 7d fc 05          	cmpl   $0x5,-0x4(%rbp)
  401352:	7e c9                	jle    40131d <phase_5+0x2f>
  401354:	c6 45 f7 00          	movb   $0x0,-0x9(%rbp)
  401358:	48 8d 45 f1          	lea    -0xf(%rbp),%rax
  40135c:	48 8d 35 b0 10 00 00 	lea    0x10b0(%rip),%rsi        # 402413 <_IO_stdin_used+0x1c3>
  401363:	48 89 c7             	mov    %rax,%rdi
  401366:	e8 3e 03 00 00       	callq  4016a9 <strings_not_equal>
  40136b:	85 c0                	test   %eax,%eax
  40136d:	74 05                	je     401374 <phase_5+0x86>
  40136f:	e8 6e 0d 00 00       	callq  4020e2 <explode_bomb>
  401374:	90                   	nop
  401375:	c9                   	leaveq 
  401376:	c3                   	retq   

0000000000401377 <fun6>:
  401377:	55                   	push   %rbp
  401378:	48 89 e5             	mov    %rsp,%rbp
  40137b:	48 89 7d d8          	mov    %rdi,-0x28(%rbp)
  40137f:	48 8b 45 d8          	mov    -0x28(%rbp),%rax
  401383:	48 89 45 f8          	mov    %rax,-0x8(%rbp)
  401387:	48 8b 45 d8          	mov    -0x28(%rbp),%rax
  40138b:	48 89 45 f8          	mov    %rax,-0x8(%rbp)
  40138f:	48 8b 45 d8          	mov    -0x28(%rbp),%rax
  401393:	48 8b 40 08          	mov    0x8(%rax),%rax
  401397:	48 89 45 f0          	mov    %rax,-0x10(%rbp)
  40139b:	48 8b 45 f8          	mov    -0x8(%rbp),%rax
  40139f:	48 c7 40 08 00 00 00 	movq   $0x0,0x8(%rax)
  4013a6:	00 
  4013a7:	eb 7d                	jmp    401426 <fun6+0xaf>
  4013a9:	48 8b 45 f8          	mov    -0x8(%rbp),%rax
  4013ad:	48 89 45 e0          	mov    %rax,-0x20(%rbp)
  4013b1:	48 8b 45 f8          	mov    -0x8(%rbp),%rax
  4013b5:	48 89 45 e8          	mov    %rax,-0x18(%rbp)
  4013b9:	eb 14                	jmp    4013cf <fun6+0x58>
  4013bb:	48 8b 45 e0          	mov    -0x20(%rbp),%rax
  4013bf:	48 89 45 e8          	mov    %rax,-0x18(%rbp)
  4013c3:	48 8b 45 e0          	mov    -0x20(%rbp),%rax
  4013c7:	48 8b 40 08          	mov    0x8(%rax),%rax
  4013cb:	48 89 45 e0          	mov    %rax,-0x20(%rbp)
  4013cf:	48 83 7d e0 00       	cmpq   $0x0,-0x20(%rbp)
  4013d4:	74 10                	je     4013e6 <fun6+0x6f>
  4013d6:	48 8b 45 e0          	mov    -0x20(%rbp),%rax
  4013da:	8b 10                	mov    (%rax),%edx
  4013dc:	48 8b 45 f0          	mov    -0x10(%rbp),%rax
  4013e0:	8b 00                	mov    (%rax),%eax
  4013e2:	39 c2                	cmp    %eax,%edx
  4013e4:	7f d5                	jg     4013bb <fun6+0x44>
  4013e6:	48 8b 45 e8          	mov    -0x18(%rbp),%rax
  4013ea:	48 3b 45 e0          	cmp    -0x20(%rbp),%rax
  4013ee:	74 0e                	je     4013fe <fun6+0x87>
  4013f0:	48 8b 45 e8          	mov    -0x18(%rbp),%rax
  4013f4:	48 8b 55 f0          	mov    -0x10(%rbp),%rdx
  4013f8:	48 89 50 08          	mov    %rdx,0x8(%rax)
  4013fc:	eb 08                	jmp    401406 <fun6+0x8f>
  4013fe:	48 8b 45 f0          	mov    -0x10(%rbp),%rax
  401402:	48 89 45 f8          	mov    %rax,-0x8(%rbp)
  401406:	48 8b 45 f0          	mov    -0x10(%rbp),%rax
  40140a:	48 8b 40 08          	mov    0x8(%rax),%rax
  40140e:	48 89 45 e8          	mov    %rax,-0x18(%rbp)
  401412:	48 8b 45 f0          	mov    -0x10(%rbp),%rax
  401416:	48 8b 55 e0          	mov    -0x20(%rbp),%rdx
  40141a:	48 89 50 08          	mov    %rdx,0x8(%rax)
  40141e:	48 8b 45 e8          	mov    -0x18(%rbp),%rax
  401422:	48 89 45 f0          	mov    %rax,-0x10(%rbp)
  401426:	48 83 7d f0 00       	cmpq   $0x0,-0x10(%rbp)
  40142b:	0f 85 78 ff ff ff    	jne    4013a9 <fun6+0x32>
  401431:	48 8b 45 f8          	mov    -0x8(%rbp),%rax
  401435:	5d                   	pop    %rbp
  401436:	c3                   	retq   

0000000000401437 <phase_6>:
  401437:	55                   	push   %rbp
  401438:	48 89 e5             	mov    %rsp,%rbp
  40143b:	48 83 ec 30          	sub    $0x30,%rsp
  40143f:	48 89 7d d8          	mov    %rdi,-0x28(%rbp)
  401443:	48 8d 05 c6 22 20 00 	lea    0x2022c6(%rip),%rax        # 603710 <node1>
  40144a:	48 89 45 e8          	mov    %rax,-0x18(%rbp)
  40144e:	48 8b 45 d8          	mov    -0x28(%rbp),%rax
  401452:	48 89 c7             	mov    %rax,%rdi
  401455:	e8 86 f9 ff ff       	callq  400de0 <atoi@plt>
  40145a:	89 45 e4             	mov    %eax,-0x1c(%rbp)
  40145d:	48 8b 45 e8          	mov    -0x18(%rbp),%rax
  401461:	48 89 c7             	mov    %rax,%rdi
  401464:	e8 0e ff ff ff       	callq  401377 <fun6>
  401469:	48 89 45 e8          	mov    %rax,-0x18(%rbp)
  40146d:	48 8b 45 e8          	mov    -0x18(%rbp),%rax
  401471:	48 89 45 f0          	mov    %rax,-0x10(%rbp)
  401475:	c7 45 fc 01 00 00 00 	movl   $0x1,-0x4(%rbp)
  40147c:	eb 10                	jmp    40148e <phase_6+0x57>
  40147e:	48 8b 45 f0          	mov    -0x10(%rbp),%rax
  401482:	48 8b 40 08          	mov    0x8(%rax),%rax
  401486:	48 89 45 f0          	mov    %rax,-0x10(%rbp)
  40148a:	83 45 fc 01          	addl   $0x1,-0x4(%rbp)
  40148e:	83 7d fc 09          	cmpl   $0x9,-0x4(%rbp)
  401492:	75 ea                	jne    40147e <phase_6+0x47>
  401494:	48 8b 45 f0          	mov    -0x10(%rbp),%rax
  401498:	8b 00                	mov    (%rax),%eax
  40149a:	3b 45 e4             	cmp    -0x1c(%rbp),%eax
  40149d:	74 05                	je     4014a4 <phase_6+0x6d>
  40149f:	e8 3e 0c 00 00       	callq  4020e2 <explode_bomb>
  4014a4:	90                   	nop
  4014a5:	c9                   	leaveq 
  4014a6:	c3                   	retq   

00000000004014a7 <fun7>:
  4014a7:	55                   	push   %rbp
  4014a8:	48 89 e5             	mov    %rsp,%rbp
  4014ab:	48 83 ec 10          	sub    $0x10,%rsp
  4014af:	48 89 7d f8          	mov    %rdi,-0x8(%rbp)
  4014b3:	89 75 f4             	mov    %esi,-0xc(%rbp)
  4014b6:	48 83 7d f8 00       	cmpq   $0x0,-0x8(%rbp)
  4014bb:	75 07                	jne    4014c4 <fun7+0x1d>
  4014bd:	b8 ff ff ff ff       	mov    $0xffffffff,%eax
  4014c2:	eb 50                	jmp    401514 <fun7+0x6d>
  4014c4:	48 8b 45 f8          	mov    -0x8(%rbp),%rax
  4014c8:	8b 00                	mov    (%rax),%eax
  4014ca:	3b 45 f4             	cmp    -0xc(%rbp),%eax
  4014cd:	7e 19                	jle    4014e8 <fun7+0x41>
  4014cf:	48 8b 45 f8          	mov    -0x8(%rbp),%rax
  4014d3:	48 8b 40 08          	mov    0x8(%rax),%rax
  4014d7:	8b 55 f4             	mov    -0xc(%rbp),%edx
  4014da:	89 d6                	mov    %edx,%esi
  4014dc:	48 89 c7             	mov    %rax,%rdi
  4014df:	e8 c3 ff ff ff       	callq  4014a7 <fun7>
  4014e4:	01 c0                	add    %eax,%eax
  4014e6:	eb 2c                	jmp    401514 <fun7+0x6d>
  4014e8:	48 8b 45 f8          	mov    -0x8(%rbp),%rax
  4014ec:	8b 00                	mov    (%rax),%eax
  4014ee:	3b 45 f4             	cmp    -0xc(%rbp),%eax
  4014f1:	75 07                	jne    4014fa <fun7+0x53>
  4014f3:	b8 00 00 00 00       	mov    $0x0,%eax
  4014f8:	eb 1a                	jmp    401514 <fun7+0x6d>
  4014fa:	48 8b 45 f8          	mov    -0x8(%rbp),%rax
  4014fe:	48 8b 40 10          	mov    0x10(%rax),%rax
  401502:	8b 55 f4             	mov    -0xc(%rbp),%edx
  401505:	89 d6                	mov    %edx,%esi
  401507:	48 89 c7             	mov    %rax,%rdi
  40150a:	e8 98 ff ff ff       	callq  4014a7 <fun7>
  40150f:	01 c0                	add    %eax,%eax
  401511:	83 c0 01             	add    $0x1,%eax
  401514:	c9                   	leaveq 
  401515:	c3                   	retq   

0000000000401516 <secret_phase>:
  401516:	55                   	push   %rbp
  401517:	48 89 e5             	mov    %rsp,%rbp
  40151a:	48 83 ec 10          	sub    $0x10,%rsp
  40151e:	e8 e4 03 00 00       	callq  401907 <read_line>
  401523:	48 89 45 f8          	mov    %rax,-0x8(%rbp)
  401527:	48 8b 45 f8          	mov    -0x8(%rbp),%rax
  40152b:	48 89 c7             	mov    %rax,%rdi
  40152e:	e8 ad f8 ff ff       	callq  400de0 <atoi@plt>
  401533:	89 45 f4             	mov    %eax,-0xc(%rbp)
  401536:	83 7d f4 00          	cmpl   $0x0,-0xc(%rbp)
  40153a:	7e 09                	jle    401545 <secret_phase+0x2f>
  40153c:	81 7d f4 e9 03 00 00 	cmpl   $0x3e9,-0xc(%rbp)
  401543:	7e 05                	jle    40154a <secret_phase+0x34>
  401545:	e8 98 0b 00 00       	callq  4020e2 <explode_bomb>
  40154a:	8b 45 f4             	mov    -0xc(%rbp),%eax
  40154d:	89 c6                	mov    %eax,%esi
  40154f:	48 8d 3d 8a 22 20 00 	lea    0x20228a(%rip),%rdi        # 6037e0 <n1>
  401556:	e8 4c ff ff ff       	callq  4014a7 <fun7>
  40155b:	89 45 f0             	mov    %eax,-0x10(%rbp)
  40155e:	83 7d f0 03          	cmpl   $0x3,-0x10(%rbp)
  401562:	74 05                	je     401569 <secret_phase+0x53>
  401564:	e8 79 0b 00 00       	callq  4020e2 <explode_bomb>
  401569:	48 8d 3d b0 0e 00 00 	lea    0xeb0(%rip),%rdi        # 402420 <_IO_stdin_used+0x1d0>
  401570:	e8 fb f6 ff ff       	callq  400c70 <puts@plt>
  401575:	e8 a4 0b 00 00       	callq  40211e <phase_defused>
  40157a:	90                   	nop
  40157b:	c9                   	leaveq 
  40157c:	c3                   	retq   

000000000040157d <sig_handler>:
  40157d:	55                   	push   %rbp
  40157e:	48 89 e5             	mov    %rsp,%rbp
  401581:	48 83 ec 10          	sub    $0x10,%rsp
  401585:	89 7d fc             	mov    %edi,-0x4(%rbp)
  401588:	48 8d 3d b9 0e 00 00 	lea    0xeb9(%rip),%rdi        # 402448 <_IO_stdin_used+0x1f8>
  40158f:	e8 dc f6 ff ff       	callq  400c70 <puts@plt>
  401594:	bf 03 00 00 00       	mov    $0x3,%edi
  401599:	e8 a2 f8 ff ff       	callq  400e40 <sleep@plt>
  40159e:	48 8d 3d db 0e 00 00 	lea    0xedb(%rip),%rdi        # 402480 <_IO_stdin_used+0x230>
  4015a5:	b8 00 00 00 00       	mov    $0x0,%eax
  4015aa:	e8 21 f7 ff ff       	callq  400cd0 <printf@plt>
  4015af:	48 8b 05 4a 22 20 00 	mov    0x20224a(%rip),%rax        # 603800 <stdout@@GLIBC_2.2.5>
  4015b6:	48 89 c7             	mov    %rax,%rdi
  4015b9:	e8 c2 f7 ff ff       	callq  400d80 <fflush@plt>
  4015be:	bf 01 00 00 00       	mov    $0x1,%edi
  4015c3:	e8 78 f8 ff ff       	callq  400e40 <sleep@plt>
  4015c8:	48 8d 3d b9 0e 00 00 	lea    0xeb9(%rip),%rdi        # 402488 <_IO_stdin_used+0x238>
  4015cf:	e8 9c f6 ff ff       	callq  400c70 <puts@plt>
  4015d4:	bf 10 00 00 00       	mov    $0x10,%edi
  4015d9:	e8 32 f8 ff ff       	callq  400e10 <exit@plt>

00000000004015de <invalid_phase>:
  4015de:	55                   	push   %rbp
  4015df:	48 89 e5             	mov    %rsp,%rbp
  4015e2:	48 83 ec 10          	sub    $0x10,%rsp
  4015e6:	48 89 7d f8          	mov    %rdi,-0x8(%rbp)
  4015ea:	48 8b 45 f8          	mov    -0x8(%rbp),%rax
  4015ee:	48 89 c6             	mov    %rax,%rsi
  4015f1:	48 8d 3d 98 0e 00 00 	lea    0xe98(%rip),%rdi        # 402490 <_IO_stdin_used+0x240>
  4015f8:	b8 00 00 00 00       	mov    $0x0,%eax
  4015fd:	e8 ce f6 ff ff       	callq  400cd0 <printf@plt>
  401602:	bf 08 00 00 00       	mov    $0x8,%edi
  401607:	e8 04 f8 ff ff       	callq  400e10 <exit@plt>

000000000040160c <read_six_numbers>:
  40160c:	55                   	push   %rbp
  40160d:	48 89 e5             	mov    %rsp,%rbp
  401610:	48 83 ec 20          	sub    $0x20,%rsp
  401614:	48 89 7d e8          	mov    %rdi,-0x18(%rbp)
  401618:	48 89 75 e0          	mov    %rsi,-0x20(%rbp)
  40161c:	48 8b 45 e0          	mov    -0x20(%rbp),%rax
  401620:	48 8d 78 14          	lea    0x14(%rax),%rdi
  401624:	48 8b 45 e0          	mov    -0x20(%rbp),%rax
  401628:	48 8d 70 10          	lea    0x10(%rax),%rsi
  40162c:	48 8b 45 e0          	mov    -0x20(%rbp),%rax
  401630:	4c 8d 48 0c          	lea    0xc(%rax),%r9
  401634:	48 8b 45 e0          	mov    -0x20(%rbp),%rax
  401638:	4c 8d 40 08          	lea    0x8(%rax),%r8
  40163c:	48 8b 45 e0          	mov    -0x20(%rbp),%rax
  401640:	48 8d 48 04          	lea    0x4(%rax),%rcx
  401644:	48 8b 55 e0          	mov    -0x20(%rbp),%rdx
  401648:	48 8b 45 e8          	mov    -0x18(%rbp),%rax
  40164c:	57                   	push   %rdi
  40164d:	56                   	push   %rsi
  40164e:	48 8d 35 4c 0e 00 00 	lea    0xe4c(%rip),%rsi        # 4024a1 <_IO_stdin_used+0x251>
  401655:	48 89 c7             	mov    %rax,%rdi
  401658:	b8 00 00 00 00       	mov    $0x0,%eax
  40165d:	e8 2e f7 ff ff       	callq  400d90 <__isoc99_sscanf@plt>
  401662:	48 83 c4 10          	add    $0x10,%rsp
  401666:	89 45 fc             	mov    %eax,-0x4(%rbp)
  401669:	83 7d fc 05          	cmpl   $0x5,-0x4(%rbp)
  40166d:	7f 05                	jg     401674 <read_six_numbers+0x68>
  40166f:	e8 6e 0a 00 00       	callq  4020e2 <explode_bomb>
  401674:	90                   	nop
  401675:	c9                   	leaveq 
  401676:	c3                   	retq   

0000000000401677 <string_length>:
  401677:	55                   	push   %rbp
  401678:	48 89 e5             	mov    %rsp,%rbp
  40167b:	48 89 7d e8          	mov    %rdi,-0x18(%rbp)
  40167f:	48 8b 45 e8          	mov    -0x18(%rbp),%rax
  401683:	48 89 45 f0          	mov    %rax,-0x10(%rbp)
  401687:	c7 45 fc 00 00 00 00 	movl   $0x0,-0x4(%rbp)
  40168e:	eb 09                	jmp    401699 <string_length+0x22>
  401690:	48 83 45 f0 01       	addq   $0x1,-0x10(%rbp)
  401695:	83 45 fc 01          	addl   $0x1,-0x4(%rbp)
  401699:	48 8b 45 f0          	mov    -0x10(%rbp),%rax
  40169d:	0f b6 00             	movzbl (%rax),%eax
  4016a0:	84 c0                	test   %al,%al
  4016a2:	75 ec                	jne    401690 <string_length+0x19>
  4016a4:	8b 45 fc             	mov    -0x4(%rbp),%eax
  4016a7:	5d                   	pop    %rbp
  4016a8:	c3                   	retq   

00000000004016a9 <strings_not_equal>:
  4016a9:	55                   	push   %rbp
  4016aa:	48 89 e5             	mov    %rsp,%rbp
  4016ad:	53                   	push   %rbx
  4016ae:	48 83 ec 20          	sub    $0x20,%rsp
  4016b2:	48 89 7d e0          	mov    %rdi,-0x20(%rbp)
  4016b6:	48 89 75 d8          	mov    %rsi,-0x28(%rbp)
  4016ba:	48 8b 45 e0          	mov    -0x20(%rbp),%rax
  4016be:	48 89 c7             	mov    %rax,%rdi
  4016c1:	e8 b1 ff ff ff       	callq  401677 <string_length>
  4016c6:	89 c3                	mov    %eax,%ebx
  4016c8:	48 8b 45 d8          	mov    -0x28(%rbp),%rax
  4016cc:	48 89 c7             	mov    %rax,%rdi
  4016cf:	e8 a3 ff ff ff       	callq  401677 <string_length>
  4016d4:	39 c3                	cmp    %eax,%ebx
  4016d6:	74 07                	je     4016df <strings_not_equal+0x36>
  4016d8:	b8 01 00 00 00       	mov    $0x1,%eax
  4016dd:	eb 45                	jmp    401724 <strings_not_equal+0x7b>
  4016df:	48 8b 45 e0          	mov    -0x20(%rbp),%rax
  4016e3:	48 89 45 f0          	mov    %rax,-0x10(%rbp)
  4016e7:	48 8b 45 d8          	mov    -0x28(%rbp),%rax
  4016eb:	48 89 45 e8          	mov    %rax,-0x18(%rbp)
  4016ef:	eb 23                	jmp    401714 <strings_not_equal+0x6b>
  4016f1:	48 8b 45 f0          	mov    -0x10(%rbp),%rax
  4016f5:	0f b6 10             	movzbl (%rax),%edx
  4016f8:	48 8b 45 e8          	mov    -0x18(%rbp),%rax
  4016fc:	0f b6 00             	movzbl (%rax),%eax
  4016ff:	38 c2                	cmp    %al,%dl
  401701:	74 07                	je     40170a <strings_not_equal+0x61>
  401703:	b8 01 00 00 00       	mov    $0x1,%eax
  401708:	eb 1a                	jmp    401724 <strings_not_equal+0x7b>
  40170a:	48 83 45 f0 01       	addq   $0x1,-0x10(%rbp)
  40170f:	48 83 45 e8 01       	addq   $0x1,-0x18(%rbp)
  401714:	48 8b 45 f0          	mov    -0x10(%rbp),%rax
  401718:	0f b6 00             	movzbl (%rax),%eax
  40171b:	84 c0                	test   %al,%al
  40171d:	75 d2                	jne    4016f1 <strings_not_equal+0x48>
  40171f:	b8 00 00 00 00       	mov    $0x0,%eax
  401724:	48 83 c4 20          	add    $0x20,%rsp
  401728:	5b                   	pop    %rbx
  401729:	5d                   	pop    %rbp
  40172a:	c3                   	retq   

000000000040172b <open_clientfd>:
  40172b:	55                   	push   %rbp
  40172c:	48 89 e5             	mov    %rsp,%rbp
  40172f:	48 83 ec 30          	sub    $0x30,%rsp
  401733:	48 89 7d d8          	mov    %rdi,-0x28(%rbp)
  401737:	89 75 d4             	mov    %esi,-0x2c(%rbp)
  40173a:	ba 00 00 00 00       	mov    $0x0,%edx
  40173f:	be 01 00 00 00       	mov    $0x1,%esi
  401744:	bf 02 00 00 00       	mov    $0x2,%edi
  401749:	e8 12 f7 ff ff       	callq  400e60 <socket@plt>
  40174e:	89 45 fc             	mov    %eax,-0x4(%rbp)
  401751:	83 7d fc 00          	cmpl   $0x0,-0x4(%rbp)
  401755:	79 16                	jns    40176d <open_clientfd+0x42>
  401757:	48 8d 3d 55 0d 00 00 	lea    0xd55(%rip),%rdi        # 4024b3 <_IO_stdin_used+0x263>
  40175e:	e8 0d f5 ff ff       	callq  400c70 <puts@plt>
  401763:	bf 08 00 00 00       	mov    $0x8,%edi
  401768:	e8 a3 f6 ff ff       	callq  400e10 <exit@plt>
  40176d:	48 8b 45 d8          	mov    -0x28(%rbp),%rax
  401771:	48 89 c7             	mov    %rax,%rdi
  401774:	e8 d7 f5 ff ff       	callq  400d50 <gethostbyname@plt>
  401779:	48 89 45 f0          	mov    %rax,-0x10(%rbp)
  40177d:	48 83 7d f0 00       	cmpq   $0x0,-0x10(%rbp)
  401782:	75 16                	jne    40179a <open_clientfd+0x6f>
  401784:	48 8d 3d 36 0d 00 00 	lea    0xd36(%rip),%rdi        # 4024c1 <_IO_stdin_used+0x271>
  40178b:	e8 e0 f4 ff ff       	callq  400c70 <puts@plt>
  401790:	bf 08 00 00 00       	mov    $0x8,%edi
  401795:	e8 76 f6 ff ff       	callq  400e10 <exit@plt>
  40179a:	48 8d 45 e0          	lea    -0x20(%rbp),%rax
  40179e:	be 10 00 00 00       	mov    $0x10,%esi
  4017a3:	48 89 c7             	mov    %rax,%rdi
  4017a6:	e8 25 f6 ff ff       	callq  400dd0 <bzero@plt>
  4017ab:	66 c7 45 e0 02 00    	movw   $0x2,-0x20(%rbp)
  4017b1:	48 8b 45 f0          	mov    -0x10(%rbp),%rax
  4017b5:	8b 40 14             	mov    0x14(%rax),%eax
  4017b8:	48 63 d0             	movslq %eax,%rdx
  4017bb:	48 8b 45 f0          	mov    -0x10(%rbp),%rax
  4017bf:	48 8b 40 18          	mov    0x18(%rax),%rax
  4017c3:	48 8b 00             	mov    (%rax),%rax
  4017c6:	48 8d 4d e0          	lea    -0x20(%rbp),%rcx
  4017ca:	48 83 c1 04          	add    $0x4,%rcx
  4017ce:	48 89 ce             	mov    %rcx,%rsi
  4017d1:	48 89 c7             	mov    %rax,%rdi
  4017d4:	e8 c7 f5 ff ff       	callq  400da0 <bcopy@plt>
  4017d9:	8b 45 d4             	mov    -0x2c(%rbp),%eax
  4017dc:	0f b7 c0             	movzwl %ax,%eax
  4017df:	89 c7                	mov    %eax,%edi
  4017e1:	e8 da f4 ff ff       	callq  400cc0 <htons@plt>
  4017e6:	66 89 45 e2          	mov    %ax,-0x1e(%rbp)
  4017ea:	48 8d 4d e0          	lea    -0x20(%rbp),%rcx
  4017ee:	8b 45 fc             	mov    -0x4(%rbp),%eax
  4017f1:	ba 10 00 00 00       	mov    $0x10,%edx
  4017f6:	48 89 ce             	mov    %rcx,%rsi
  4017f9:	89 c7                	mov    %eax,%edi
  4017fb:	e8 20 f6 ff ff       	callq  400e20 <connect@plt>
  401800:	85 c0                	test   %eax,%eax
  401802:	79 16                	jns    40181a <open_clientfd+0xef>
  401804:	48 8d 3d c4 0c 00 00 	lea    0xcc4(%rip),%rdi        # 4024cf <_IO_stdin_used+0x27f>
  40180b:	e8 60 f4 ff ff       	callq  400c70 <puts@plt>
  401810:	bf 08 00 00 00       	mov    $0x8,%edi
  401815:	e8 f6 f5 ff ff       	callq  400e10 <exit@plt>
  40181a:	8b 45 fc             	mov    -0x4(%rbp),%eax
  40181d:	c9                   	leaveq 
  40181e:	c3                   	retq   

000000000040181f <initialize_bomb>:
  40181f:	55                   	push   %rbp
  401820:	48 89 e5             	mov    %rsp,%rbp
  401823:	48 8d 35 53 fd ff ff 	lea    -0x2ad(%rip),%rsi        # 40157d <sig_handler>
  40182a:	bf 02 00 00 00       	mov    $0x2,%edi
  40182f:	e8 0c f5 ff ff       	callq  400d40 <signal@plt>
  401834:	be 50 00 00 00       	mov    $0x50,%esi
  401839:	48 8d 3d 9d 0c 00 00 	lea    0xc9d(%rip),%rdi        # 4024dd <_IO_stdin_used+0x28d>
  401840:	e8 e6 fe ff ff       	callq  40172b <open_clientfd>
  401845:	89 c7                	mov    %eax,%edi
  401847:	e8 b4 f4 ff ff       	callq  400d00 <close@plt>
  40184c:	90                   	nop
  40184d:	5d                   	pop    %rbp
  40184e:	c3                   	retq   

000000000040184f <blank_line>:
  40184f:	55                   	push   %rbp
  401850:	48 89 e5             	mov    %rsp,%rbp
  401853:	48 83 ec 10          	sub    $0x10,%rsp
  401857:	48 89 7d f8          	mov    %rdi,-0x8(%rbp)
  40185b:	eb 37                	jmp    401894 <blank_line+0x45>
  40185d:	e8 ee f5 ff ff       	callq  400e50 <__ctype_b_loc@plt>
  401862:	48 8b 08             	mov    (%rax),%rcx
  401865:	48 8b 45 f8          	mov    -0x8(%rbp),%rax
  401869:	48 8d 50 01          	lea    0x1(%rax),%rdx
  40186d:	48 89 55 f8          	mov    %rdx,-0x8(%rbp)
  401871:	0f b6 00             	movzbl (%rax),%eax
  401874:	48 0f be c0          	movsbq %al,%rax
  401878:	48 01 c0             	add    %rax,%rax
  40187b:	48 01 c8             	add    %rcx,%rax
  40187e:	0f b7 00             	movzwl (%rax),%eax
  401881:	0f b7 c0             	movzwl %ax,%eax
  401884:	25 00 20 00 00       	and    $0x2000,%eax
  401889:	85 c0                	test   %eax,%eax
  40188b:	75 07                	jne    401894 <blank_line+0x45>
  40188d:	b8 00 00 00 00       	mov    $0x0,%eax
  401892:	eb 10                	jmp    4018a4 <blank_line+0x55>
  401894:	48 8b 45 f8          	mov    -0x8(%rbp),%rax
  401898:	0f b6 00             	movzbl (%rax),%eax
  40189b:	84 c0                	test   %al,%al
  40189d:	75 be                	jne    40185d <blank_line+0xe>
  40189f:	b8 01 00 00 00       	mov    $0x1,%eax
  4018a4:	c9                   	leaveq 
  4018a5:	c3                   	retq   

00000000004018a6 <skip>:
  4018a6:	55                   	push   %rbp
  4018a7:	48 89 e5             	mov    %rsp,%rbp
  4018aa:	48 83 ec 10          	sub    $0x10,%rsp
  4018ae:	48 8b 0d 6b 1f 20 00 	mov    0x201f6b(%rip),%rcx        # 603820 <infile>
  4018b5:	8b 05 61 1f 20 00    	mov    0x201f61(%rip),%eax        # 60381c <num_input_strings>
  4018bb:	48 63 d0             	movslq %eax,%rdx
  4018be:	48 89 d0             	mov    %rdx,%rax
  4018c1:	48 c1 e0 02          	shl    $0x2,%rax
  4018c5:	48 01 d0             	add    %rdx,%rax
  4018c8:	48 c1 e0 04          	shl    $0x4,%rax
  4018cc:	48 8d 15 6d 1f 20 00 	lea    0x201f6d(%rip),%rdx        # 603840 <input_strings>
  4018d3:	48 01 d0             	add    %rdx,%rax
  4018d6:	48 89 ca             	mov    %rcx,%rdx
  4018d9:	be 50 00 00 00       	mov    $0x50,%esi
  4018de:	48 89 c7             	mov    %rax,%rdi
  4018e1:	e8 3a f4 ff ff       	callq  400d20 <fgets@plt>
  4018e6:	48 89 45 f8          	mov    %rax,-0x8(%rbp)
  4018ea:	48 83 7d f8 00       	cmpq   $0x0,-0x8(%rbp)
  4018ef:	74 10                	je     401901 <skip+0x5b>
  4018f1:	48 8b 45 f8          	mov    -0x8(%rbp),%rax
  4018f5:	48 89 c7             	mov    %rax,%rdi
  4018f8:	e8 52 ff ff ff       	callq  40184f <blank_line>
  4018fd:	85 c0                	test   %eax,%eax
  4018ff:	75 ad                	jne    4018ae <skip+0x8>
  401901:	48 8b 45 f8          	mov    -0x8(%rbp),%rax
  401905:	c9                   	leaveq 
  401906:	c3                   	retq   

0000000000401907 <read_line>:
  401907:	55                   	push   %rbp
  401908:	48 89 e5             	mov    %rsp,%rbp
  40190b:	48 83 ec 10          	sub    $0x10,%rsp
  40190f:	b8 00 00 00 00       	mov    $0x0,%eax
  401914:	e8 8d ff ff ff       	callq  4018a6 <skip>
  401919:	48 89 45 f8          	mov    %rax,-0x8(%rbp)
  40191d:	48 83 7d f8 00       	cmpq   $0x0,-0x8(%rbp)
  401922:	75 75                	jne    401999 <read_line+0x92>
  401924:	48 8b 15 f5 1e 20 00 	mov    0x201ef5(%rip),%rdx        # 603820 <infile>
  40192b:	48 8b 05 de 1e 20 00 	mov    0x201ede(%rip),%rax        # 603810 <stdin@@GLIBC_2.2.5>
  401932:	48 39 c2             	cmp    %rax,%rdx
  401935:	75 13                	jne    40194a <read_line+0x43>
  401937:	48 8d 3d ad 0b 00 00 	lea    0xbad(%rip),%rdi        # 4024eb <_IO_stdin_used+0x29b>
  40193e:	e8 2d f3 ff ff       	callq  400c70 <puts@plt>
  401943:	e8 9a 07 00 00       	callq  4020e2 <explode_bomb>
  401948:	eb 4f                	jmp    401999 <read_line+0x92>
  40194a:	48 8d 3d b8 0b 00 00 	lea    0xbb8(%rip),%rdi        # 402509 <_IO_stdin_used+0x2b9>
  401951:	e8 ea f2 ff ff       	callq  400c40 <getenv@plt>
  401956:	48 85 c0             	test   %rax,%rax
  401959:	74 0a                	je     401965 <read_line+0x5e>
  40195b:	bf 00 00 00 00       	mov    $0x0,%edi
  401960:	e8 ab f4 ff ff       	callq  400e10 <exit@plt>
  401965:	48 8b 05 a4 1e 20 00 	mov    0x201ea4(%rip),%rax        # 603810 <stdin@@GLIBC_2.2.5>
  40196c:	48 89 05 ad 1e 20 00 	mov    %rax,0x201ead(%rip)        # 603820 <infile>
  401973:	b8 00 00 00 00       	mov    $0x0,%eax
  401978:	e8 29 ff ff ff       	callq  4018a6 <skip>
  40197d:	48 89 45 f8          	mov    %rax,-0x8(%rbp)
  401981:	48 83 7d f8 00       	cmpq   $0x0,-0x8(%rbp)
  401986:	75 11                	jne    401999 <read_line+0x92>
  401988:	48 8d 3d 5c 0b 00 00 	lea    0xb5c(%rip),%rdi        # 4024eb <_IO_stdin_used+0x29b>
  40198f:	e8 dc f2 ff ff       	callq  400c70 <puts@plt>
  401994:	e8 49 07 00 00       	callq  4020e2 <explode_bomb>
  401999:	8b 05 7d 1e 20 00    	mov    0x201e7d(%rip),%eax        # 60381c <num_input_strings>
  40199f:	48 63 d0             	movslq %eax,%rdx
  4019a2:	48 89 d0             	mov    %rdx,%rax
  4019a5:	48 c1 e0 02          	shl    $0x2,%rax
  4019a9:	48 01 d0             	add    %rdx,%rax
  4019ac:	48 c1 e0 04          	shl    $0x4,%rax
  4019b0:	48 8d 15 89 1e 20 00 	lea    0x201e89(%rip),%rdx        # 603840 <input_strings>
  4019b7:	48 01 d0             	add    %rdx,%rax
  4019ba:	48 89 c7             	mov    %rax,%rdi
  4019bd:	e8 de f2 ff ff       	callq  400ca0 <strlen@plt>
  4019c2:	89 45 f4             	mov    %eax,-0xc(%rbp)
  4019c5:	83 7d f4 4f          	cmpl   $0x4f,-0xc(%rbp)
  4019c9:	75 11                	jne    4019dc <read_line+0xd5>
  4019cb:	48 8d 3d 42 0b 00 00 	lea    0xb42(%rip),%rdi        # 402514 <_IO_stdin_used+0x2c4>
  4019d2:	e8 99 f2 ff ff       	callq  400c70 <puts@plt>
  4019d7:	e8 06 07 00 00       	callq  4020e2 <explode_bomb>
  4019dc:	8b 05 3a 1e 20 00    	mov    0x201e3a(%rip),%eax        # 60381c <num_input_strings>
  4019e2:	8b 55 f4             	mov    -0xc(%rbp),%edx
  4019e5:	83 ea 01             	sub    $0x1,%edx
  4019e8:	48 63 ca             	movslq %edx,%rcx
  4019eb:	48 63 d0             	movslq %eax,%rdx
  4019ee:	48 89 d0             	mov    %rdx,%rax
  4019f1:	48 c1 e0 02          	shl    $0x2,%rax
  4019f5:	48 01 d0             	add    %rdx,%rax
  4019f8:	48 c1 e0 04          	shl    $0x4,%rax
  4019fc:	48 8d 14 08          	lea    (%rax,%rcx,1),%rdx
  401a00:	48 8d 05 39 1e 20 00 	lea    0x201e39(%rip),%rax        # 603840 <input_strings>
  401a07:	48 01 d0             	add    %rdx,%rax
  401a0a:	c6 00 00             	movb   $0x0,(%rax)
  401a0d:	8b 05 09 1e 20 00    	mov    0x201e09(%rip),%eax        # 60381c <num_input_strings>
  401a13:	8d 50 01             	lea    0x1(%rax),%edx
  401a16:	89 15 00 1e 20 00    	mov    %edx,0x201e00(%rip)        # 60381c <num_input_strings>
  401a1c:	48 63 d0             	movslq %eax,%rdx
  401a1f:	48 89 d0             	mov    %rdx,%rax
  401a22:	48 c1 e0 02          	shl    $0x2,%rax
  401a26:	48 01 d0             	add    %rdx,%rax
  401a29:	48 c1 e0 04          	shl    $0x4,%rax
  401a2d:	48 8d 15 0c 1e 20 00 	lea    0x201e0c(%rip),%rdx        # 603840 <input_strings>
  401a34:	48 01 d0             	add    %rdx,%rax
  401a37:	c9                   	leaveq 
  401a38:	c3                   	retq   

0000000000401a39 <writen>:
  401a39:	55                   	push   %rbp
  401a3a:	48 89 e5             	mov    %rsp,%rbp
  401a3d:	48 83 ec 40          	sub    $0x40,%rsp
  401a41:	89 7d dc             	mov    %edi,-0x24(%rbp)
  401a44:	48 89 75 d0          	mov    %rsi,-0x30(%rbp)
  401a48:	48 89 55 c8          	mov    %rdx,-0x38(%rbp)
  401a4c:	48 8b 45 d0          	mov    -0x30(%rbp),%rax
  401a50:	48 89 45 e8          	mov    %rax,-0x18(%rbp)
  401a54:	48 8b 45 c8          	mov    -0x38(%rbp),%rax
  401a58:	48 89 45 f8          	mov    %rax,-0x8(%rbp)
  401a5c:	eb 4f                	jmp    401aad <writen+0x74>
  401a5e:	48 8b 55 f8          	mov    -0x8(%rbp),%rdx
  401a62:	48 8b 4d e8          	mov    -0x18(%rbp),%rcx
  401a66:	8b 45 dc             	mov    -0x24(%rbp),%eax
  401a69:	48 89 ce             	mov    %rcx,%rsi
  401a6c:	89 c7                	mov    %eax,%edi
  401a6e:	e8 0d f2 ff ff       	callq  400c80 <write@plt>
  401a73:	48 89 45 f0          	mov    %rax,-0x10(%rbp)
  401a77:	48 83 7d f0 00       	cmpq   $0x0,-0x10(%rbp)
  401a7c:	7f 1f                	jg     401a9d <writen+0x64>
  401a7e:	e8 cd f1 ff ff       	callq  400c50 <__errno_location@plt>
  401a83:	8b 00                	mov    (%rax),%eax
  401a85:	83 f8 04             	cmp    $0x4,%eax
  401a88:	75 0a                	jne    401a94 <writen+0x5b>
  401a8a:	48 c7 45 f0 00 00 00 	movq   $0x0,-0x10(%rbp)
  401a91:	00 
  401a92:	eb 09                	jmp    401a9d <writen+0x64>
  401a94:	48 c7 c0 ff ff ff ff 	mov    $0xffffffffffffffff,%rax
  401a9b:	eb 1b                	jmp    401ab8 <writen+0x7f>
  401a9d:	48 8b 45 f0          	mov    -0x10(%rbp),%rax
  401aa1:	48 29 45 f8          	sub    %rax,-0x8(%rbp)
  401aa5:	48 8b 45 f0          	mov    -0x10(%rbp),%rax
  401aa9:	48 01 45 e8          	add    %rax,-0x18(%rbp)
  401aad:	48 83 7d f8 00       	cmpq   $0x0,-0x8(%rbp)
  401ab2:	75 aa                	jne    401a5e <writen+0x25>
  401ab4:	48 8b 45 c8          	mov    -0x38(%rbp),%rax
  401ab8:	c9                   	leaveq 
  401ab9:	c3                   	retq   

0000000000401aba <send_msg>:
  401aba:	55                   	push   %rbp
  401abb:	48 89 e5             	mov    %rsp,%rbp
  401abe:	53                   	push   %rbx
  401abf:	48 81 ec 88 24 00 00 	sub    $0x2488,%rsp
  401ac6:	89 bd 7c db ff ff    	mov    %edi,-0x2484(%rbp)
  401acc:	c7 45 e8 00 00 00 00 	movl   $0x0,-0x18(%rbp)
  401ad3:	ba 00 00 00 00       	mov    $0x0,%edx
  401ad8:	be 01 00 00 00       	mov    $0x1,%esi
  401add:	bf 02 00 00 00       	mov    $0x2,%edi
  401ae2:	e8 79 f3 ff ff       	callq  400e60 <socket@plt>
  401ae7:	89 45 e8             	mov    %eax,-0x18(%rbp)
  401aea:	83 7d e8 00          	cmpl   $0x0,-0x18(%rbp)
  401aee:	79 3c                	jns    401b2c <send_msg+0x72>
  401af0:	48 8b 05 09 1d 20 00 	mov    0x201d09(%rip),%rax        # 603800 <stdout@@GLIBC_2.2.5>
  401af7:	48 8d 15 31 0a 00 00 	lea    0xa31(%rip),%rdx        # 40252f <_IO_stdin_used+0x2df>
  401afe:	48 8d 35 37 0a 00 00 	lea    0xa37(%rip),%rsi        # 40253c <_IO_stdin_used+0x2ec>
  401b05:	48 89 c7             	mov    %rax,%rdi
  401b08:	b8 00 00 00 00       	mov    $0x0,%eax
  401b0d:	e8 4e f2 ff ff       	callq  400d60 <fprintf@plt>
  401b12:	83 7d e8 00          	cmpl   $0x0,-0x18(%rbp)
  401b16:	74 0a                	je     401b22 <send_msg+0x68>
  401b18:	8b 45 e8             	mov    -0x18(%rbp),%eax
  401b1b:	89 c7                	mov    %eax,%edi
  401b1d:	e8 de f1 ff ff       	callq  400d00 <close@plt>
  401b22:	bf 01 00 00 00       	mov    $0x1,%edi
  401b27:	e8 e4 f2 ff ff       	callq  400e10 <exit@plt>
  401b2c:	48 8d 45 d0          	lea    -0x30(%rbp),%rax
  401b30:	be 10 00 00 00       	mov    $0x10,%esi
  401b35:	48 89 c7             	mov    %rax,%rdi
  401b38:	e8 93 f2 ff ff       	callq  400dd0 <bzero@plt>
  401b3d:	66 c7 45 d0 02 00    	movw   $0x2,-0x30(%rbp)
  401b43:	bf 7a c8 00 00       	mov    $0xc87a,%edi
  401b48:	e8 73 f1 ff ff       	callq  400cc0 <htons@plt>
  401b4d:	66 89 45 d2          	mov    %ax,-0x2e(%rbp)
  401b51:	48 8d 45 d0          	lea    -0x30(%rbp),%rax
  401b55:	48 83 c0 04          	add    $0x4,%rax
  401b59:	48 89 c2             	mov    %rax,%rdx
  401b5c:	48 8d 35 7a 09 00 00 	lea    0x97a(%rip),%rsi        # 4024dd <_IO_stdin_used+0x28d>
  401b63:	bf 02 00 00 00       	mov    $0x2,%edi
  401b68:	b8 00 00 00 00       	mov    $0x0,%eax
  401b6d:	e8 fe f1 ff ff       	callq  400d70 <inet_pton@plt>
  401b72:	85 c0                	test   %eax,%eax
  401b74:	79 3c                	jns    401bb2 <send_msg+0xf8>
  401b76:	48 8b 05 83 1c 20 00 	mov    0x201c83(%rip),%rax        # 603800 <stdout@@GLIBC_2.2.5>
  401b7d:	48 8d 15 bc 09 00 00 	lea    0x9bc(%rip),%rdx        # 402540 <_IO_stdin_used+0x2f0>
  401b84:	48 8d 35 b1 09 00 00 	lea    0x9b1(%rip),%rsi        # 40253c <_IO_stdin_used+0x2ec>
  401b8b:	48 89 c7             	mov    %rax,%rdi
  401b8e:	b8 00 00 00 00       	mov    $0x0,%eax
  401b93:	e8 c8 f1 ff ff       	callq  400d60 <fprintf@plt>
  401b98:	83 7d e8 00          	cmpl   $0x0,-0x18(%rbp)
  401b9c:	74 0a                	je     401ba8 <send_msg+0xee>
  401b9e:	8b 45 e8             	mov    -0x18(%rbp),%eax
  401ba1:	89 c7                	mov    %eax,%edi
  401ba3:	e8 58 f1 ff ff       	callq  400d00 <close@plt>
  401ba8:	bf 01 00 00 00       	mov    $0x1,%edi
  401bad:	e8 5e f2 ff ff       	callq  400e10 <exit@plt>
  401bb2:	48 8d 4d d0          	lea    -0x30(%rbp),%rcx
  401bb6:	8b 45 e8             	mov    -0x18(%rbp),%eax
  401bb9:	ba 10 00 00 00       	mov    $0x10,%edx
  401bbe:	48 89 ce             	mov    %rcx,%rsi
  401bc1:	89 c7                	mov    %eax,%edi
  401bc3:	e8 58 f2 ff ff       	callq  400e20 <connect@plt>
  401bc8:	85 c0                	test   %eax,%eax
  401bca:	79 3c                	jns    401c08 <send_msg+0x14e>
  401bcc:	48 8b 05 2d 1c 20 00 	mov    0x201c2d(%rip),%rax        # 603800 <stdout@@GLIBC_2.2.5>
  401bd3:	48 8d 15 6c 09 00 00 	lea    0x96c(%rip),%rdx        # 402546 <_IO_stdin_used+0x2f6>
  401bda:	48 8d 35 5b 09 00 00 	lea    0x95b(%rip),%rsi        # 40253c <_IO_stdin_used+0x2ec>
  401be1:	48 89 c7             	mov    %rax,%rdi
  401be4:	b8 00 00 00 00       	mov    $0x0,%eax
  401be9:	e8 72 f1 ff ff       	callq  400d60 <fprintf@plt>
  401bee:	83 7d e8 00          	cmpl   $0x0,-0x18(%rbp)
  401bf2:	74 0a                	je     401bfe <send_msg+0x144>
  401bf4:	8b 45 e8             	mov    -0x18(%rbp),%eax
  401bf7:	89 c7                	mov    %eax,%edi
  401bf9:	e8 02 f1 ff ff       	callq  400d00 <close@plt>
  401bfe:	bf 01 00 00 00       	mov    $0x1,%edi
  401c03:	e8 08 f2 ff ff       	callq  400e10 <exit@plt>
  401c08:	48 8d 85 d0 db ff ff 	lea    -0x2430(%rbp),%rax
  401c0f:	48 bb 53 75 62 6a 65 	movabs $0x3a7463656a627553,%rbx
  401c16:	63 74 3a 
  401c19:	48 89 18             	mov    %rbx,(%rax)
  401c1c:	48 bb 20 42 6f 6d 62 	movabs $0x6f6e20626d6f4220,%rbx
  401c23:	20 6e 6f 
  401c26:	48 89 58 08          	mov    %rbx,0x8(%rax)
  401c2a:	48 bb 74 69 66 69 63 	movabs $0x6974616369666974,%rbx
  401c31:	61 74 69 
  401c34:	48 89 58 10          	mov    %rbx,0x10(%rax)
  401c38:	c7 40 18 6f 6e 0a 00 	movl   $0xa6e6f,0x18(%rax)
  401c3f:	48 8d 95 d0 db ff ff 	lea    -0x2430(%rbp),%rdx
  401c46:	48 8d 85 d0 df ff ff 	lea    -0x2030(%rbp),%rax
  401c4d:	48 89 d6             	mov    %rdx,%rsi
  401c50:	48 89 c7             	mov    %rax,%rdi
  401c53:	e8 98 f1 ff ff       	callq  400df0 <strcat@plt>
  401c58:	48 8d 85 d0 db ff ff 	lea    -0x2430(%rbp),%rax
  401c5f:	66 c7 00 0a 00       	movw   $0xa,(%rax)
  401c64:	48 8d 95 d0 db ff ff 	lea    -0x2430(%rbp),%rdx
  401c6b:	48 8d 85 d0 df ff ff 	lea    -0x2030(%rbp),%rax
  401c72:	48 89 d6             	mov    %rdx,%rsi
  401c75:	48 89 c7             	mov    %rax,%rdi
  401c78:	e8 73 f1 ff ff       	callq  400df0 <strcat@plt>
  401c7d:	bf 00 00 00 00       	mov    $0x0,%edi
  401c82:	e8 29 f1 ff ff       	callq  400db0 <cuserid@plt>
  401c87:	48 89 45 e0          	mov    %rax,-0x20(%rbp)
  401c8b:	48 83 7d e0 00       	cmpq   $0x0,-0x20(%rbp)
  401c90:	75 19                	jne    401cab <send_msg+0x1f1>
  401c92:	48 8d 85 80 db ff ff 	lea    -0x2480(%rbp),%rax
  401c99:	c7 00 6e 6f 62 6f    	movl   $0x6f626f6e,(%rax)
  401c9f:	66 c7 40 04 64 79    	movw   $0x7964,0x4(%rax)
  401ca5:	c6 40 06 00          	movb   $0x0,0x6(%rax)
  401ca9:	eb 16                	jmp    401cc1 <send_msg+0x207>
  401cab:	48 8b 55 e0          	mov    -0x20(%rbp),%rdx
  401caf:	48 8d 85 80 db ff ff 	lea    -0x2480(%rbp),%rax
  401cb6:	48 89 d6             	mov    %rdx,%rsi
  401cb9:	48 89 c7             	mov    %rax,%rdi
  401cbc:	e8 9f ef ff ff       	callq  400c60 <strcpy@plt>
  401cc1:	8b 0d 55 1b 20 00    	mov    0x201b55(%rip),%ecx        # 60381c <num_input_strings>
  401cc7:	83 bd 7c db ff ff 00 	cmpl   $0x0,-0x2484(%rbp)
  401cce:	74 09                	je     401cd9 <send_msg+0x21f>
  401cd0:	48 8d 05 7d 08 00 00 	lea    0x87d(%rip),%rax        # 402554 <_IO_stdin_used+0x304>
  401cd7:	eb 07                	jmp    401ce0 <send_msg+0x226>
  401cd9:	48 8d 05 7c 08 00 00 	lea    0x87c(%rip),%rax        # 40255c <_IO_stdin_used+0x30c>
  401ce0:	8b 15 7a 14 20 00    	mov    0x20147a(%rip),%edx        # 603160 <bomb_id>
  401ce6:	48 8d b5 80 db ff ff 	lea    -0x2480(%rbp),%rsi
  401ced:	48 8d bd d0 db ff ff 	lea    -0x2430(%rbp),%rdi
  401cf4:	48 83 ec 08          	sub    $0x8,%rsp
  401cf8:	51                   	push   %rcx
  401cf9:	49 89 c1             	mov    %rax,%r9
  401cfc:	49 89 f0             	mov    %rsi,%r8
  401cff:	89 d1                	mov    %edx,%ecx
  401d01:	48 8d 15 78 14 20 00 	lea    0x201478(%rip),%rdx        # 603180 <lab_id>
  401d08:	48 8d 35 56 08 00 00 	lea    0x856(%rip),%rsi        # 402565 <_IO_stdin_used+0x315>
  401d0f:	b8 00 00 00 00       	mov    $0x0,%eax
  401d14:	e8 e7 f0 ff ff       	callq  400e00 <sprintf@plt>
  401d19:	48 83 c4 10          	add    $0x10,%rsp
  401d1d:	48 8d 95 d0 db ff ff 	lea    -0x2430(%rbp),%rdx
  401d24:	48 8d 85 d0 df ff ff 	lea    -0x2030(%rbp),%rax
  401d2b:	48 89 d6             	mov    %rdx,%rsi
  401d2e:	48 89 c7             	mov    %rax,%rdi
  401d31:	e8 ba f0 ff ff       	callq  400df0 <strcat@plt>
  401d36:	c7 45 ec 00 00 00 00 	movl   $0x0,-0x14(%rbp)
  401d3d:	e9 82 00 00 00       	jmpq   401dc4 <send_msg+0x30a>
  401d42:	8b 45 ec             	mov    -0x14(%rbp),%eax
  401d45:	48 63 d0             	movslq %eax,%rdx
  401d48:	48 89 d0             	mov    %rdx,%rax
  401d4b:	48 c1 e0 02          	shl    $0x2,%rax
  401d4f:	48 01 d0             	add    %rdx,%rax
  401d52:	48 c1 e0 04          	shl    $0x4,%rax
  401d56:	48 8d 15 e3 1a 20 00 	lea    0x201ae3(%rip),%rdx        # 603840 <input_strings>
  401d5d:	48 8d 34 10          	lea    (%rax,%rdx,1),%rsi
  401d61:	8b 45 ec             	mov    -0x14(%rbp),%eax
  401d64:	8d 78 01             	lea    0x1(%rax),%edi
  401d67:	8b 15 f3 13 20 00    	mov    0x2013f3(%rip),%edx        # 603160 <bomb_id>
  401d6d:	48 8d 8d 80 db ff ff 	lea    -0x2480(%rbp),%rcx
  401d74:	48 8d 85 d0 db ff ff 	lea    -0x2430(%rbp),%rax
  401d7b:	48 83 ec 08          	sub    $0x8,%rsp
  401d7f:	56                   	push   %rsi
  401d80:	41 89 f9             	mov    %edi,%r9d
  401d83:	49 89 c8             	mov    %rcx,%r8
  401d86:	89 d1                	mov    %edx,%ecx
  401d88:	48 8d 15 f1 13 20 00 	lea    0x2013f1(%rip),%rdx        # 603180 <lab_id>
  401d8f:	48 8d 35 eb 07 00 00 	lea    0x7eb(%rip),%rsi        # 402581 <_IO_stdin_used+0x331>
  401d96:	48 89 c7             	mov    %rax,%rdi
  401d99:	b8 00 00 00 00       	mov    $0x0,%eax
  401d9e:	e8 5d f0 ff ff       	callq  400e00 <sprintf@plt>
  401da3:	48 83 c4 10          	add    $0x10,%rsp
  401da7:	48 8d 95 d0 db ff ff 	lea    -0x2430(%rbp),%rdx
  401dae:	48 8d 85 d0 df ff ff 	lea    -0x2030(%rbp),%rax
  401db5:	48 89 d6             	mov    %rdx,%rsi
  401db8:	48 89 c7             	mov    %rax,%rdi
  401dbb:	e8 30 f0 ff ff       	callq  400df0 <strcat@plt>
  401dc0:	83 45 ec 01          	addl   $0x1,-0x14(%rbp)
  401dc4:	8b 05 52 1a 20 00    	mov    0x201a52(%rip),%eax        # 60381c <num_input_strings>
  401dca:	39 45 ec             	cmp    %eax,-0x14(%rbp)
  401dcd:	0f 8c 6f ff ff ff    	jl     401d42 <send_msg+0x288>
  401dd3:	48 8d 85 d0 df ff ff 	lea    -0x2030(%rbp),%rax
  401dda:	48 89 c7             	mov    %rax,%rdi
  401ddd:	e8 be ee ff ff       	callq  400ca0 <strlen@plt>
  401de2:	48 89 c2             	mov    %rax,%rdx
  401de5:	48 8d 8d d0 df ff ff 	lea    -0x2030(%rbp),%rcx
  401dec:	8b 45 e8             	mov    -0x18(%rbp),%eax
  401def:	48 89 ce             	mov    %rcx,%rsi
  401df2:	89 c7                	mov    %eax,%edi
  401df4:	e8 40 fc ff ff       	callq  401a39 <writen>
  401df9:	48 89 c3             	mov    %rax,%rbx
  401dfc:	48 8d 85 d0 df ff ff 	lea    -0x2030(%rbp),%rax
  401e03:	48 89 c7             	mov    %rax,%rdi
  401e06:	e8 95 ee ff ff       	callq  400ca0 <strlen@plt>
  401e0b:	48 39 c3             	cmp    %rax,%rbx
  401e0e:	73 3c                	jae    401e4c <send_msg+0x392>
  401e10:	48 8b 05 e9 19 20 00 	mov    0x2019e9(%rip),%rax        # 603800 <stdout@@GLIBC_2.2.5>
  401e17:	48 8d 15 7f 07 00 00 	lea    0x77f(%rip),%rdx        # 40259d <_IO_stdin_used+0x34d>
  401e1e:	48 8d 35 17 07 00 00 	lea    0x717(%rip),%rsi        # 40253c <_IO_stdin_used+0x2ec>
  401e25:	48 89 c7             	mov    %rax,%rdi
  401e28:	b8 00 00 00 00       	mov    $0x0,%eax
  401e2d:	e8 2e ef ff ff       	callq  400d60 <fprintf@plt>
  401e32:	83 7d e8 00          	cmpl   $0x0,-0x18(%rbp)
  401e36:	74 0a                	je     401e42 <send_msg+0x388>
  401e38:	8b 45 e8             	mov    -0x18(%rbp),%eax
  401e3b:	89 c7                	mov    %eax,%edi
  401e3d:	e8 be ee ff ff       	callq  400d00 <close@plt>
  401e42:	bf 01 00 00 00       	mov    $0x1,%edi
  401e47:	e8 c4 ef ff ff       	callq  400e10 <exit@plt>
  401e4c:	8b 45 e8             	mov    -0x18(%rbp),%eax
  401e4f:	89 c7                	mov    %eax,%edi
  401e51:	e8 aa ee ff ff       	callq  400d00 <close@plt>
  401e56:	90                   	nop
  401e57:	48 8b 5d f8          	mov    -0x8(%rbp),%rbx
  401e5b:	c9                   	leaveq 
  401e5c:	c3                   	retq   

0000000000401e5d <send_msg_2>:
  401e5d:	55                   	push   %rbp
  401e5e:	48 89 e5             	mov    %rsp,%rbp
  401e61:	48 83 c4 80          	add    $0xffffffffffffff80,%rsp
  401e65:	89 7d 8c             	mov    %edi,-0x74(%rbp)
  401e68:	bf 00 00 00 00       	mov    $0x0,%edi
  401e6d:	e8 7e ee ff ff       	callq  400cf0 <dup@plt>
  401e72:	89 45 f8             	mov    %eax,-0x8(%rbp)
  401e75:	83 7d f8 ff          	cmpl   $0xffffffff,-0x8(%rbp)
  401e79:	75 16                	jne    401e91 <send_msg_2+0x34>
  401e7b:	48 8d 3d 2e 07 00 00 	lea    0x72e(%rip),%rdi        # 4025b0 <_IO_stdin_used+0x360>
  401e82:	e8 e9 ed ff ff       	callq  400c70 <puts@plt>
  401e87:	bf 08 00 00 00       	mov    $0x8,%edi
  401e8c:	e8 7f ef ff ff       	callq  400e10 <exit@plt>
  401e91:	bf 00 00 00 00       	mov    $0x0,%edi
  401e96:	e8 65 ee ff ff       	callq  400d00 <close@plt>
  401e9b:	83 f8 ff             	cmp    $0xffffffff,%eax
  401e9e:	75 16                	jne    401eb6 <send_msg_2+0x59>
  401ea0:	48 8d 3d 1d 07 00 00 	lea    0x71d(%rip),%rdi        # 4025c4 <_IO_stdin_used+0x374>
  401ea7:	e8 c4 ed ff ff       	callq  400c70 <puts@plt>
  401eac:	bf 08 00 00 00       	mov    $0x8,%edi
  401eb1:	e8 5a ef ff ff       	callq  400e10 <exit@plt>
  401eb6:	e8 75 ee ff ff       	callq  400d30 <tmpfile@plt>
  401ebb:	48 89 45 f0          	mov    %rax,-0x10(%rbp)
  401ebf:	48 83 7d f0 00       	cmpq   $0x0,-0x10(%rbp)
  401ec4:	75 16                	jne    401edc <send_msg_2+0x7f>
  401ec6:	48 8d 3d 0a 07 00 00 	lea    0x70a(%rip),%rdi        # 4025d7 <_IO_stdin_used+0x387>
  401ecd:	e8 9e ed ff ff       	callq  400c70 <puts@plt>
  401ed2:	bf 08 00 00 00       	mov    $0x8,%edi
  401ed7:	e8 34 ef ff ff       	callq  400e10 <exit@plt>
  401edc:	48 8b 45 f0          	mov    -0x10(%rbp),%rax
  401ee0:	48 89 c1             	mov    %rax,%rcx
  401ee3:	ba 1b 00 00 00       	mov    $0x1b,%edx
  401ee8:	be 01 00 00 00       	mov    $0x1,%esi
  401eed:	48 8d 3d f8 06 00 00 	lea    0x6f8(%rip),%rdi        # 4025ec <_IO_stdin_used+0x39c>
  401ef4:	e8 37 ef ff ff       	callq  400e30 <fwrite@plt>
  401ef9:	48 8b 45 f0          	mov    -0x10(%rbp),%rax
  401efd:	48 89 c6             	mov    %rax,%rsi
  401f00:	bf 0a 00 00 00       	mov    $0xa,%edi
  401f05:	e8 06 ee ff ff       	callq  400d10 <fputc@plt>
  401f0a:	bf 00 00 00 00       	mov    $0x0,%edi
  401f0f:	e8 9c ee ff ff       	callq  400db0 <cuserid@plt>
  401f14:	48 89 45 e8          	mov    %rax,-0x18(%rbp)
  401f18:	48 83 7d e8 00       	cmpq   $0x0,-0x18(%rbp)
  401f1d:	75 16                	jne    401f35 <send_msg_2+0xd8>
  401f1f:	48 8d 45 90          	lea    -0x70(%rbp),%rax
  401f23:	c7 00 6e 6f 62 6f    	movl   $0x6f626f6e,(%rax)
  401f29:	66 c7 40 04 64 79    	movw   $0x7964,0x4(%rax)
  401f2f:	c6 40 06 00          	movb   $0x0,0x6(%rax)
  401f33:	eb 13                	jmp    401f48 <send_msg_2+0xeb>
  401f35:	48 8b 55 e8          	mov    -0x18(%rbp),%rdx
  401f39:	48 8d 45 90          	lea    -0x70(%rbp),%rax
  401f3d:	48 89 d6             	mov    %rdx,%rsi
  401f40:	48 89 c7             	mov    %rax,%rdi
  401f43:	e8 18 ed ff ff       	callq  400c60 <strcpy@plt>
  401f48:	8b 0d ce 18 20 00    	mov    0x2018ce(%rip),%ecx        # 60381c <num_input_strings>
  401f4e:	83 7d 8c 00          	cmpl   $0x0,-0x74(%rbp)
  401f52:	74 09                	je     401f5d <send_msg_2+0x100>
  401f54:	48 8d 05 f9 05 00 00 	lea    0x5f9(%rip),%rax        # 402554 <_IO_stdin_used+0x304>
  401f5b:	eb 07                	jmp    401f64 <send_msg_2+0x107>
  401f5d:	48 8d 05 f8 05 00 00 	lea    0x5f8(%rip),%rax        # 40255c <_IO_stdin_used+0x30c>
  401f64:	8b 15 f6 11 20 00    	mov    0x2011f6(%rip),%edx        # 603160 <bomb_id>
  401f6a:	48 8d 75 90          	lea    -0x70(%rbp),%rsi
  401f6e:	48 8b 7d f0          	mov    -0x10(%rbp),%rdi
  401f72:	48 83 ec 08          	sub    $0x8,%rsp
  401f76:	51                   	push   %rcx
  401f77:	49 89 c1             	mov    %rax,%r9
  401f7a:	49 89 f0             	mov    %rsi,%r8
  401f7d:	89 d1                	mov    %edx,%ecx
  401f7f:	48 8d 15 fa 11 20 00 	lea    0x2011fa(%rip),%rdx        # 603180 <lab_id>
  401f86:	48 8d 35 d8 05 00 00 	lea    0x5d8(%rip),%rsi        # 402565 <_IO_stdin_used+0x315>
  401f8d:	b8 00 00 00 00       	mov    $0x0,%eax
  401f92:	e8 c9 ed ff ff       	callq  400d60 <fprintf@plt>
  401f97:	48 83 c4 10          	add    $0x10,%rsp
  401f9b:	c7 45 fc 00 00 00 00 	movl   $0x0,-0x4(%rbp)
  401fa2:	eb 63                	jmp    402007 <send_msg_2+0x1aa>
  401fa4:	8b 45 fc             	mov    -0x4(%rbp),%eax
  401fa7:	48 63 d0             	movslq %eax,%rdx
  401faa:	48 89 d0             	mov    %rdx,%rax
  401fad:	48 c1 e0 02          	shl    $0x2,%rax
  401fb1:	48 01 d0             	add    %rdx,%rax
  401fb4:	48 c1 e0 04          	shl    $0x4,%rax
  401fb8:	48 8d 15 81 18 20 00 	lea    0x201881(%rip),%rdx        # 603840 <input_strings>
  401fbf:	48 8d 34 10          	lea    (%rax,%rdx,1),%rsi
  401fc3:	8b 45 fc             	mov    -0x4(%rbp),%eax
  401fc6:	8d 78 01             	lea    0x1(%rax),%edi
  401fc9:	8b 15 91 11 20 00    	mov    0x201191(%rip),%edx        # 603160 <bomb_id>
  401fcf:	48 8d 4d 90          	lea    -0x70(%rbp),%rcx
  401fd3:	48 8b 45 f0          	mov    -0x10(%rbp),%rax
  401fd7:	48 83 ec 08          	sub    $0x8,%rsp
  401fdb:	56                   	push   %rsi
  401fdc:	41 89 f9             	mov    %edi,%r9d
  401fdf:	49 89 c8             	mov    %rcx,%r8
  401fe2:	89 d1                	mov    %edx,%ecx
  401fe4:	48 8d 15 95 11 20 00 	lea    0x201195(%rip),%rdx        # 603180 <lab_id>
  401feb:	48 8d 35 8f 05 00 00 	lea    0x58f(%rip),%rsi        # 402581 <_IO_stdin_used+0x331>
  401ff2:	48 89 c7             	mov    %rax,%rdi
  401ff5:	b8 00 00 00 00       	mov    $0x0,%eax
  401ffa:	e8 61 ed ff ff       	callq  400d60 <fprintf@plt>
  401fff:	48 83 c4 10          	add    $0x10,%rsp
  402003:	83 45 fc 01          	addl   $0x1,-0x4(%rbp)
  402007:	8b 05 0f 18 20 00    	mov    0x20180f(%rip),%eax        # 60381c <num_input_strings>
  40200d:	39 45 fc             	cmp    %eax,-0x4(%rbp)
  402010:	7c 92                	jl     401fa4 <send_msg_2+0x147>
  402012:	48 8b 45 f0          	mov    -0x10(%rbp),%rax
  402016:	48 89 c7             	mov    %rax,%rdi
  402019:	e8 c2 ec ff ff       	callq  400ce0 <rewind@plt>
  40201e:	4c 8d 05 e3 05 00 00 	lea    0x5e3(%rip),%r8        # 402608 <_IO_stdin_used+0x3b8>
  402025:	48 8d 0d e6 05 00 00 	lea    0x5e6(%rip),%rcx        # 402612 <_IO_stdin_used+0x3c2>
  40202c:	48 8d 15 e7 05 00 00 	lea    0x5e7(%rip),%rdx        # 40261a <_IO_stdin_used+0x3ca>
  402033:	48 8d 35 f7 05 00 00 	lea    0x5f7(%rip),%rsi        # 402631 <_IO_stdin_used+0x3e1>
  40203a:	48 8d 3d 3f 1e 20 00 	lea    0x201e3f(%rip),%rdi        # 603e80 <scratch>
  402041:	b8 00 00 00 00       	mov    $0x0,%eax
  402046:	e8 b5 ed ff ff       	callq  400e00 <sprintf@plt>
  40204b:	48 8d 3d 2e 1e 20 00 	lea    0x201e2e(%rip),%rdi        # 603e80 <scratch>
  402052:	e8 59 ec ff ff       	callq  400cb0 <system@plt>
  402057:	85 c0                	test   %eax,%eax
  402059:	74 16                	je     402071 <send_msg_2+0x214>
  40205b:	48 8d 3d d8 05 00 00 	lea    0x5d8(%rip),%rdi        # 40263a <_IO_stdin_used+0x3ea>
  402062:	e8 09 ec ff ff       	callq  400c70 <puts@plt>
  402067:	bf 08 00 00 00       	mov    $0x8,%edi
  40206c:	e8 9f ed ff ff       	callq  400e10 <exit@plt>
  402071:	48 8b 45 f0          	mov    -0x10(%rbp),%rax
  402075:	48 89 c7             	mov    %rax,%rdi
  402078:	e8 13 ec ff ff       	callq  400c90 <fclose@plt>
  40207d:	85 c0                	test   %eax,%eax
  40207f:	74 16                	je     402097 <send_msg_2+0x23a>
  402081:	48 8d 3d cc 05 00 00 	lea    0x5cc(%rip),%rdi        # 402654 <_IO_stdin_used+0x404>
  402088:	e8 e3 eb ff ff       	callq  400c70 <puts@plt>
  40208d:	bf 08 00 00 00       	mov    $0x8,%edi
  402092:	e8 79 ed ff ff       	callq  400e10 <exit@plt>
  402097:	8b 45 f8             	mov    -0x8(%rbp),%eax
  40209a:	89 c7                	mov    %eax,%edi
  40209c:	e8 4f ec ff ff       	callq  400cf0 <dup@plt>
  4020a1:	85 c0                	test   %eax,%eax
  4020a3:	74 16                	je     4020bb <send_msg_2+0x25e>
  4020a5:	48 8d 3d c1 05 00 00 	lea    0x5c1(%rip),%rdi        # 40266d <_IO_stdin_used+0x41d>
  4020ac:	e8 bf eb ff ff       	callq  400c70 <puts@plt>
  4020b1:	bf 08 00 00 00       	mov    $0x8,%edi
  4020b6:	e8 55 ed ff ff       	callq  400e10 <exit@plt>
  4020bb:	8b 45 f8             	mov    -0x8(%rbp),%eax
  4020be:	89 c7                	mov    %eax,%edi
  4020c0:	e8 3b ec ff ff       	callq  400d00 <close@plt>
  4020c5:	85 c0                	test   %eax,%eax
  4020c7:	74 16                	je     4020df <send_msg_2+0x282>
  4020c9:	48 8d 3d b8 05 00 00 	lea    0x5b8(%rip),%rdi        # 402688 <_IO_stdin_used+0x438>
  4020d0:	e8 9b eb ff ff       	callq  400c70 <puts@plt>
  4020d5:	bf 08 00 00 00       	mov    $0x8,%edi
  4020da:	e8 31 ed ff ff       	callq  400e10 <exit@plt>
  4020df:	90                   	nop
  4020e0:	c9                   	leaveq 
  4020e1:	c3                   	retq   

00000000004020e2 <explode_bomb>:
  4020e2:	55                   	push   %rbp
  4020e3:	48 89 e5             	mov    %rsp,%rbp
  4020e6:	48 8d 3d b2 05 00 00 	lea    0x5b2(%rip),%rdi        # 40269f <_IO_stdin_used+0x44f>
  4020ed:	e8 7e eb ff ff       	callq  400c70 <puts@plt>
  4020f2:	48 8d 3d af 05 00 00 	lea    0x5af(%rip),%rdi        # 4026a8 <_IO_stdin_used+0x458>
  4020f9:	e8 72 eb ff ff       	callq  400c70 <puts@plt>
  4020fe:	bf 00 00 00 00       	mov    $0x0,%edi
  402103:	e8 b2 f9 ff ff       	callq  401aba <send_msg>
  402108:	48 8d 3d b1 05 00 00 	lea    0x5b1(%rip),%rdi        # 4026c0 <_IO_stdin_used+0x470>
  40210f:	e8 5c eb ff ff       	callq  400c70 <puts@plt>
  402114:	bf 08 00 00 00       	mov    $0x8,%edi
  402119:	e8 f2 ec ff ff       	callq  400e10 <exit@plt>

000000000040211e <phase_defused>:
  40211e:	55                   	push   %rbp
  40211f:	48 89 e5             	mov    %rsp,%rbp
  402122:	48 83 ec 70          	sub    $0x70,%rsp
  402126:	bf 01 00 00 00       	mov    $0x1,%edi
  40212b:	e8 8a f9 ff ff       	callq  401aba <send_msg>
  402130:	8b 05 e6 16 20 00    	mov    0x2016e6(%rip),%eax        # 60381c <num_input_strings>
  402136:	83 f8 06             	cmp    $0x6,%eax
  402139:	0f 85 80 00 00 00    	jne    4021bf <phase_defused+0xa1>
  40213f:	48 8d 55 a0          	lea    -0x60(%rbp),%rdx
  402143:	48 8d 45 9c          	lea    -0x64(%rbp),%rax
  402147:	48 89 d1             	mov    %rdx,%rcx
  40214a:	48 89 c2             	mov    %rax,%rdx
  40214d:	48 8d 35 8f 05 00 00 	lea    0x58f(%rip),%rsi        # 4026e3 <_IO_stdin_used+0x493>
  402154:	48 8d 3d d5 17 20 00 	lea    0x2017d5(%rip),%rdi        # 603930 <input_strings+0xf0>
  40215b:	b8 00 00 00 00       	mov    $0x0,%eax
  402160:	e8 2b ec ff ff       	callq  400d90 <__isoc99_sscanf@plt>
  402165:	89 45 fc             	mov    %eax,-0x4(%rbp)
  402168:	83 7d fc 02          	cmpl   $0x2,-0x4(%rbp)
  40216c:	75 39                	jne    4021a7 <phase_defused+0x89>
  40216e:	48 8d 45 a0          	lea    -0x60(%rbp),%rax
  402172:	48 8d 35 70 05 00 00 	lea    0x570(%rip),%rsi        # 4026e9 <_IO_stdin_used+0x499>
  402179:	48 89 c7             	mov    %rax,%rdi
  40217c:	e8 28 f5 ff ff       	callq  4016a9 <strings_not_equal>
  402181:	85 c0                	test   %eax,%eax
  402183:	75 22                	jne    4021a7 <phase_defused+0x89>
  402185:	48 8d 3d 6c 05 00 00 	lea    0x56c(%rip),%rdi        # 4026f8 <_IO_stdin_used+0x4a8>
  40218c:	e8 df ea ff ff       	callq  400c70 <puts@plt>
  402191:	48 8d 3d 88 05 00 00 	lea    0x588(%rip),%rdi        # 402720 <_IO_stdin_used+0x4d0>
  402198:	e8 d3 ea ff ff       	callq  400c70 <puts@plt>
  40219d:	b8 00 00 00 00       	mov    $0x0,%eax
  4021a2:	e8 6f f3 ff ff       	callq  401516 <secret_phase>
  4021a7:	48 8d 3d aa 05 00 00 	lea    0x5aa(%rip),%rdi        # 402758 <_IO_stdin_used+0x508>
  4021ae:	e8 bd ea ff ff       	callq  400c70 <puts@plt>
  4021b3:	48 8d 3d ce 05 00 00 	lea    0x5ce(%rip),%rdi        # 402788 <_IO_stdin_used+0x538>
  4021ba:	e8 b1 ea ff ff       	callq  400c70 <puts@plt>
  4021bf:	90                   	nop
  4021c0:	c9                   	leaveq 
  4021c1:	c3                   	retq   
  4021c2:	66 2e 0f 1f 84 00 00 	nopw   %cs:0x0(%rax,%rax,1)
  4021c9:	00 00 00 
  4021cc:	0f 1f 40 00          	nopl   0x0(%rax)

00000000004021d0 <__libc_csu_init>:
  4021d0:	41 57                	push   %r15
  4021d2:	41 56                	push   %r14
  4021d4:	41 89 ff             	mov    %edi,%r15d
  4021d7:	41 55                	push   %r13
  4021d9:	41 54                	push   %r12
  4021db:	4c 8d 25 26 0c 20 00 	lea    0x200c26(%rip),%r12        # 602e08 <__frame_dummy_init_array_entry>
  4021e2:	55                   	push   %rbp
  4021e3:	48 8d 2d 26 0c 20 00 	lea    0x200c26(%rip),%rbp        # 602e10 <__init_array_end>
  4021ea:	53                   	push   %rbx
  4021eb:	49 89 f6             	mov    %rsi,%r14
  4021ee:	49 89 d5             	mov    %rdx,%r13
  4021f1:	4c 29 e5             	sub    %r12,%rbp
  4021f4:	48 83 ec 08          	sub    $0x8,%rsp
  4021f8:	48 c1 fd 03          	sar    $0x3,%rbp
  4021fc:	e8 0f ea ff ff       	callq  400c10 <_init>
  402201:	48 85 ed             	test   %rbp,%rbp
  402204:	74 20                	je     402226 <__libc_csu_init+0x56>
  402206:	31 db                	xor    %ebx,%ebx
  402208:	0f 1f 84 00 00 00 00 	nopl   0x0(%rax,%rax,1)
  40220f:	00 
  402210:	4c 89 ea             	mov    %r13,%rdx
  402213:	4c 89 f6             	mov    %r14,%rsi
  402216:	44 89 ff             	mov    %r15d,%edi
  402219:	41 ff 14 dc          	callq  *(%r12,%rbx,8)
  40221d:	48 83 c3 01          	add    $0x1,%rbx
  402221:	48 39 dd             	cmp    %rbx,%rbp
  402224:	75 ea                	jne    402210 <__libc_csu_init+0x40>
  402226:	48 83 c4 08          	add    $0x8,%rsp
  40222a:	5b                   	pop    %rbx
  40222b:	5d                   	pop    %rbp
  40222c:	41 5c                	pop    %r12
  40222e:	41 5d                	pop    %r13
  402230:	41 5e                	pop    %r14
  402232:	41 5f                	pop    %r15
  402234:	c3                   	retq   
  402235:	90                   	nop
  402236:	66 2e 0f 1f 84 00 00 	nopw   %cs:0x0(%rax,%rax,1)
  40223d:	00 00 00 

0000000000402240 <__libc_csu_fini>:
  402240:	f3 c3                	repz retq 

Disassembly of section .fini:

0000000000402244 <_fini>:
  402244:	48 83 ec 08          	sub    $0x8,%rsp
  402248:	48 83 c4 08          	add    $0x8,%rsp
  40224c:	c3                   	retq   
