
ctarget:     file format elf64-x86-64


Disassembly of section .init:

0000000000400bb0 <_init>:
  400bb0:	48 83 ec 08          	sub    $0x8,%rsp
  400bb4:	48 8b 05 3d 34 20 00 	mov    0x20343d(%rip),%rax        # 603ff8 <__gmon_start__>
  400bbb:	48 85 c0             	test   %rax,%rax
  400bbe:	74 02                	je     400bc2 <_init+0x12>
  400bc0:	ff d0                	callq  *%rax
  400bc2:	48 83 c4 08          	add    $0x8,%rsp
  400bc6:	c3                   	retq   

Disassembly of section .plt:

0000000000400bd0 <.plt>:
  400bd0:	ff 35 32 34 20 00    	pushq  0x203432(%rip)        # 604008 <_GLOBAL_OFFSET_TABLE_+0x8>
  400bd6:	ff 25 34 34 20 00    	jmpq   *0x203434(%rip)        # 604010 <_GLOBAL_OFFSET_TABLE_+0x10>
  400bdc:	0f 1f 40 00          	nopl   0x0(%rax)

0000000000400be0 <strcasecmp@plt>:
  400be0:	ff 25 32 34 20 00    	jmpq   *0x203432(%rip)        # 604018 <strcasecmp@GLIBC_2.2.5>
  400be6:	68 00 00 00 00       	pushq  $0x0
  400beb:	e9 e0 ff ff ff       	jmpq   400bd0 <.plt>

0000000000400bf0 <__errno_location@plt>:
  400bf0:	ff 25 2a 34 20 00    	jmpq   *0x20342a(%rip)        # 604020 <__errno_location@GLIBC_2.2.5>
  400bf6:	68 01 00 00 00       	pushq  $0x1
  400bfb:	e9 d0 ff ff ff       	jmpq   400bd0 <.plt>

0000000000400c00 <srandom@plt>:
  400c00:	ff 25 22 34 20 00    	jmpq   *0x203422(%rip)        # 604028 <srandom@GLIBC_2.2.5>
  400c06:	68 02 00 00 00       	pushq  $0x2
  400c0b:	e9 c0 ff ff ff       	jmpq   400bd0 <.plt>

0000000000400c10 <strncmp@plt>:
  400c10:	ff 25 1a 34 20 00    	jmpq   *0x20341a(%rip)        # 604030 <strncmp@GLIBC_2.2.5>
  400c16:	68 03 00 00 00       	pushq  $0x3
  400c1b:	e9 b0 ff ff ff       	jmpq   400bd0 <.plt>

0000000000400c20 <strcpy@plt>:
  400c20:	ff 25 12 34 20 00    	jmpq   *0x203412(%rip)        # 604038 <strcpy@GLIBC_2.2.5>
  400c26:	68 04 00 00 00       	pushq  $0x4
  400c2b:	e9 a0 ff ff ff       	jmpq   400bd0 <.plt>

0000000000400c30 <puts@plt>:
  400c30:	ff 25 0a 34 20 00    	jmpq   *0x20340a(%rip)        # 604040 <puts@GLIBC_2.2.5>
  400c36:	68 05 00 00 00       	pushq  $0x5
  400c3b:	e9 90 ff ff ff       	jmpq   400bd0 <.plt>

0000000000400c40 <write@plt>:
  400c40:	ff 25 02 34 20 00    	jmpq   *0x203402(%rip)        # 604048 <write@GLIBC_2.2.5>
  400c46:	68 06 00 00 00       	pushq  $0x6
  400c4b:	e9 80 ff ff ff       	jmpq   400bd0 <.plt>

0000000000400c50 <mmap@plt>:
  400c50:	ff 25 fa 33 20 00    	jmpq   *0x2033fa(%rip)        # 604050 <mmap@GLIBC_2.2.5>
  400c56:	68 07 00 00 00       	pushq  $0x7
  400c5b:	e9 70 ff ff ff       	jmpq   400bd0 <.plt>

0000000000400c60 <printf@plt>:
  400c60:	ff 25 f2 33 20 00    	jmpq   *0x2033f2(%rip)        # 604058 <printf@GLIBC_2.2.5>
  400c66:	68 08 00 00 00       	pushq  $0x8
  400c6b:	e9 60 ff ff ff       	jmpq   400bd0 <.plt>

0000000000400c70 <memset@plt>:
  400c70:	ff 25 ea 33 20 00    	jmpq   *0x2033ea(%rip)        # 604060 <memset@GLIBC_2.2.5>
  400c76:	68 09 00 00 00       	pushq  $0x9
  400c7b:	e9 50 ff ff ff       	jmpq   400bd0 <.plt>

0000000000400c80 <alarm@plt>:
  400c80:	ff 25 e2 33 20 00    	jmpq   *0x2033e2(%rip)        # 604068 <alarm@GLIBC_2.2.5>
  400c86:	68 0a 00 00 00       	pushq  $0xa
  400c8b:	e9 40 ff ff ff       	jmpq   400bd0 <.plt>

0000000000400c90 <close@plt>:
  400c90:	ff 25 da 33 20 00    	jmpq   *0x2033da(%rip)        # 604070 <close@GLIBC_2.2.5>
  400c96:	68 0b 00 00 00       	pushq  $0xb
  400c9b:	e9 30 ff ff ff       	jmpq   400bd0 <.plt>

0000000000400ca0 <read@plt>:
  400ca0:	ff 25 d2 33 20 00    	jmpq   *0x2033d2(%rip)        # 604078 <read@GLIBC_2.2.5>
  400ca6:	68 0c 00 00 00       	pushq  $0xc
  400cab:	e9 20 ff ff ff       	jmpq   400bd0 <.plt>

0000000000400cb0 <signal@plt>:
  400cb0:	ff 25 ca 33 20 00    	jmpq   *0x2033ca(%rip)        # 604080 <signal@GLIBC_2.2.5>
  400cb6:	68 0d 00 00 00       	pushq  $0xd
  400cbb:	e9 10 ff ff ff       	jmpq   400bd0 <.plt>

0000000000400cc0 <gethostbyname@plt>:
  400cc0:	ff 25 c2 33 20 00    	jmpq   *0x2033c2(%rip)        # 604088 <gethostbyname@GLIBC_2.2.5>
  400cc6:	68 0e 00 00 00       	pushq  $0xe
  400ccb:	e9 00 ff ff ff       	jmpq   400bd0 <.plt>

0000000000400cd0 <fprintf@plt>:
  400cd0:	ff 25 ba 33 20 00    	jmpq   *0x2033ba(%rip)        # 604090 <fprintf@GLIBC_2.2.5>
  400cd6:	68 0f 00 00 00       	pushq  $0xf
  400cdb:	e9 f0 fe ff ff       	jmpq   400bd0 <.plt>

0000000000400ce0 <strtol@plt>:
  400ce0:	ff 25 b2 33 20 00    	jmpq   *0x2033b2(%rip)        # 604098 <strtol@GLIBC_2.2.5>
  400ce6:	68 10 00 00 00       	pushq  $0x10
  400ceb:	e9 e0 fe ff ff       	jmpq   400bd0 <.plt>

0000000000400cf0 <memcpy@plt>:
  400cf0:	ff 25 aa 33 20 00    	jmpq   *0x2033aa(%rip)        # 6040a0 <memcpy@GLIBC_2.14>
  400cf6:	68 11 00 00 00       	pushq  $0x11
  400cfb:	e9 d0 fe ff ff       	jmpq   400bd0 <.plt>

0000000000400d00 <time@plt>:
  400d00:	ff 25 a2 33 20 00    	jmpq   *0x2033a2(%rip)        # 6040a8 <time@GLIBC_2.2.5>
  400d06:	68 12 00 00 00       	pushq  $0x12
  400d0b:	e9 c0 fe ff ff       	jmpq   400bd0 <.plt>

0000000000400d10 <random@plt>:
  400d10:	ff 25 9a 33 20 00    	jmpq   *0x20339a(%rip)        # 6040b0 <random@GLIBC_2.2.5>
  400d16:	68 13 00 00 00       	pushq  $0x13
  400d1b:	e9 b0 fe ff ff       	jmpq   400bd0 <.plt>

0000000000400d20 <_IO_getc@plt>:
  400d20:	ff 25 92 33 20 00    	jmpq   *0x203392(%rip)        # 6040b8 <_IO_getc@GLIBC_2.2.5>
  400d26:	68 14 00 00 00       	pushq  $0x14
  400d2b:	e9 a0 fe ff ff       	jmpq   400bd0 <.plt>

0000000000400d30 <__isoc99_sscanf@plt>:
  400d30:	ff 25 8a 33 20 00    	jmpq   *0x20338a(%rip)        # 6040c0 <__isoc99_sscanf@GLIBC_2.7>
  400d36:	68 15 00 00 00       	pushq  $0x15
  400d3b:	e9 90 fe ff ff       	jmpq   400bd0 <.plt>

0000000000400d40 <munmap@plt>:
  400d40:	ff 25 82 33 20 00    	jmpq   *0x203382(%rip)        # 6040c8 <munmap@GLIBC_2.2.5>
  400d46:	68 16 00 00 00       	pushq  $0x16
  400d4b:	e9 80 fe ff ff       	jmpq   400bd0 <.plt>

0000000000400d50 <bcopy@plt>:
  400d50:	ff 25 7a 33 20 00    	jmpq   *0x20337a(%rip)        # 6040d0 <bcopy@GLIBC_2.2.5>
  400d56:	68 17 00 00 00       	pushq  $0x17
  400d5b:	e9 70 fe ff ff       	jmpq   400bd0 <.plt>

0000000000400d60 <fopen@plt>:
  400d60:	ff 25 72 33 20 00    	jmpq   *0x203372(%rip)        # 6040d8 <fopen@GLIBC_2.2.5>
  400d66:	68 18 00 00 00       	pushq  $0x18
  400d6b:	e9 60 fe ff ff       	jmpq   400bd0 <.plt>

0000000000400d70 <getopt@plt>:
  400d70:	ff 25 6a 33 20 00    	jmpq   *0x20336a(%rip)        # 6040e0 <getopt@GLIBC_2.2.5>
  400d76:	68 19 00 00 00       	pushq  $0x19
  400d7b:	e9 50 fe ff ff       	jmpq   400bd0 <.plt>

0000000000400d80 <strtoul@plt>:
  400d80:	ff 25 62 33 20 00    	jmpq   *0x203362(%rip)        # 6040e8 <strtoul@GLIBC_2.2.5>
  400d86:	68 1a 00 00 00       	pushq  $0x1a
  400d8b:	e9 40 fe ff ff       	jmpq   400bd0 <.plt>

0000000000400d90 <gethostname@plt>:
  400d90:	ff 25 5a 33 20 00    	jmpq   *0x20335a(%rip)        # 6040f0 <gethostname@GLIBC_2.2.5>
  400d96:	68 1b 00 00 00       	pushq  $0x1b
  400d9b:	e9 30 fe ff ff       	jmpq   400bd0 <.plt>

0000000000400da0 <sprintf@plt>:
  400da0:	ff 25 52 33 20 00    	jmpq   *0x203352(%rip)        # 6040f8 <sprintf@GLIBC_2.2.5>
  400da6:	68 1c 00 00 00       	pushq  $0x1c
  400dab:	e9 20 fe ff ff       	jmpq   400bd0 <.plt>

0000000000400db0 <exit@plt>:
  400db0:	ff 25 4a 33 20 00    	jmpq   *0x20334a(%rip)        # 604100 <exit@GLIBC_2.2.5>
  400db6:	68 1d 00 00 00       	pushq  $0x1d
  400dbb:	e9 10 fe ff ff       	jmpq   400bd0 <.plt>

0000000000400dc0 <connect@plt>:
  400dc0:	ff 25 42 33 20 00    	jmpq   *0x203342(%rip)        # 604108 <connect@GLIBC_2.2.5>
  400dc6:	68 1e 00 00 00       	pushq  $0x1e
  400dcb:	e9 00 fe ff ff       	jmpq   400bd0 <.plt>

0000000000400dd0 <socket@plt>:
  400dd0:	ff 25 3a 33 20 00    	jmpq   *0x20333a(%rip)        # 604110 <socket@GLIBC_2.2.5>
  400dd6:	68 1f 00 00 00       	pushq  $0x1f
  400ddb:	e9 f0 fd ff ff       	jmpq   400bd0 <.plt>

Disassembly of section .text:

0000000000400de0 <_start>:
  400de0:	31 ed                	xor    %ebp,%ebp
  400de2:	49 89 d1             	mov    %rdx,%r9
  400de5:	5e                   	pop    %rsi
  400de6:	48 89 e2             	mov    %rsp,%rdx
  400de9:	48 83 e4 f0          	and    $0xfffffffffffffff0,%rsp
  400ded:	50                   	push   %rax
  400dee:	54                   	push   %rsp
  400def:	49 c7 c0 50 2c 40 00 	mov    $0x402c50,%r8
  400df6:	48 c7 c1 e0 2b 40 00 	mov    $0x402be0,%rcx
  400dfd:	48 c7 c7 8d 10 40 00 	mov    $0x40108d,%rdi
  400e04:	ff 15 e6 31 20 00    	callq  *0x2031e6(%rip)        # 603ff0 <__libc_start_main@GLIBC_2.2.5>
  400e0a:	f4                   	hlt    
  400e0b:	0f 1f 44 00 00       	nopl   0x0(%rax,%rax,1)

0000000000400e10 <deregister_tm_clones>:
  400e10:	b8 97 44 60 00       	mov    $0x604497,%eax
  400e15:	55                   	push   %rbp
  400e16:	48 2d 90 44 60 00    	sub    $0x604490,%rax
  400e1c:	48 83 f8 0e          	cmp    $0xe,%rax
  400e20:	48 89 e5             	mov    %rsp,%rbp
  400e23:	76 1b                	jbe    400e40 <deregister_tm_clones+0x30>
  400e25:	b8 00 00 00 00       	mov    $0x0,%eax
  400e2a:	48 85 c0             	test   %rax,%rax
  400e2d:	74 11                	je     400e40 <deregister_tm_clones+0x30>
  400e2f:	5d                   	pop    %rbp
  400e30:	bf 90 44 60 00       	mov    $0x604490,%edi
  400e35:	ff e0                	jmpq   *%rax
  400e37:	66 0f 1f 84 00 00 00 	nopw   0x0(%rax,%rax,1)
  400e3e:	00 00 
  400e40:	5d                   	pop    %rbp
  400e41:	c3                   	retq   
  400e42:	0f 1f 40 00          	nopl   0x0(%rax)
  400e46:	66 2e 0f 1f 84 00 00 	nopw   %cs:0x0(%rax,%rax,1)
  400e4d:	00 00 00 

0000000000400e50 <register_tm_clones>:
  400e50:	be 90 44 60 00       	mov    $0x604490,%esi
  400e55:	55                   	push   %rbp
  400e56:	48 81 ee 90 44 60 00 	sub    $0x604490,%rsi
  400e5d:	48 c1 fe 03          	sar    $0x3,%rsi
  400e61:	48 89 e5             	mov    %rsp,%rbp
  400e64:	48 89 f0             	mov    %rsi,%rax
  400e67:	48 c1 e8 3f          	shr    $0x3f,%rax
  400e6b:	48 01 c6             	add    %rax,%rsi
  400e6e:	48 d1 fe             	sar    %rsi
  400e71:	74 15                	je     400e88 <register_tm_clones+0x38>
  400e73:	b8 00 00 00 00       	mov    $0x0,%eax
  400e78:	48 85 c0             	test   %rax,%rax
  400e7b:	74 0b                	je     400e88 <register_tm_clones+0x38>
  400e7d:	5d                   	pop    %rbp
  400e7e:	bf 90 44 60 00       	mov    $0x604490,%edi
  400e83:	ff e0                	jmpq   *%rax
  400e85:	0f 1f 00             	nopl   (%rax)
  400e88:	5d                   	pop    %rbp
  400e89:	c3                   	retq   
  400e8a:	66 0f 1f 44 00 00    	nopw   0x0(%rax,%rax,1)

0000000000400e90 <__do_global_dtors_aux>:
  400e90:	80 3d 31 36 20 00 00 	cmpb   $0x0,0x203631(%rip)        # 6044c8 <completed.6972>
  400e97:	75 11                	jne    400eaa <__do_global_dtors_aux+0x1a>
  400e99:	55                   	push   %rbp
  400e9a:	48 89 e5             	mov    %rsp,%rbp
  400e9d:	e8 6e ff ff ff       	callq  400e10 <deregister_tm_clones>
  400ea2:	5d                   	pop    %rbp
  400ea3:	c6 05 1e 36 20 00 01 	movb   $0x1,0x20361e(%rip)        # 6044c8 <completed.6972>
  400eaa:	f3 c3                	repz retq 
  400eac:	0f 1f 40 00          	nopl   0x0(%rax)

0000000000400eb0 <frame_dummy>:
  400eb0:	bf 18 3e 60 00       	mov    $0x603e18,%edi
  400eb5:	48 83 3f 00          	cmpq   $0x0,(%rdi)
  400eb9:	75 05                	jne    400ec0 <frame_dummy+0x10>
  400ebb:	eb 93                	jmp    400e50 <register_tm_clones>
  400ebd:	0f 1f 00             	nopl   (%rax)
  400ec0:	b8 00 00 00 00       	mov    $0x0,%eax
  400ec5:	48 85 c0             	test   %rax,%rax
  400ec8:	74 f1                	je     400ebb <frame_dummy+0xb>
  400eca:	55                   	push   %rbp
  400ecb:	48 89 e5             	mov    %rsp,%rbp
  400ece:	ff d0                	callq  *%rax
  400ed0:	5d                   	pop    %rbp
  400ed1:	e9 7a ff ff ff       	jmpq   400e50 <register_tm_clones>

0000000000400ed6 <usage>:
  400ed6:	48 83 ec 08          	sub    $0x8,%rsp
  400eda:	48 89 fe             	mov    %rdi,%rsi
  400edd:	83 3d 24 36 20 00 00 	cmpl   $0x0,0x203624(%rip)        # 604508 <is_checker>
  400ee4:	74 4b                	je     400f31 <usage+0x5b>
  400ee6:	48 8d 3d 7b 1d 00 00 	lea    0x1d7b(%rip),%rdi        # 402c68 <_IO_stdin_used+0x8>
  400eed:	b8 00 00 00 00       	mov    $0x0,%eax
  400ef2:	e8 69 fd ff ff       	callq  400c60 <printf@plt>
  400ef7:	48 8d 3d a2 1d 00 00 	lea    0x1da2(%rip),%rdi        # 402ca0 <_IO_stdin_used+0x40>
  400efe:	e8 2d fd ff ff       	callq  400c30 <puts@plt>
  400f03:	48 8d 3d ce 1e 00 00 	lea    0x1ece(%rip),%rdi        # 402dd8 <_IO_stdin_used+0x178>
  400f0a:	e8 21 fd ff ff       	callq  400c30 <puts@plt>
  400f0f:	48 8d 3d b2 1d 00 00 	lea    0x1db2(%rip),%rdi        # 402cc8 <_IO_stdin_used+0x68>
  400f16:	e8 15 fd ff ff       	callq  400c30 <puts@plt>
  400f1b:	48 8d 3d d0 1e 00 00 	lea    0x1ed0(%rip),%rdi        # 402df2 <_IO_stdin_used+0x192>
  400f22:	e8 09 fd ff ff       	callq  400c30 <puts@plt>
  400f27:	bf 00 00 00 00       	mov    $0x0,%edi
  400f2c:	e8 7f fe ff ff       	callq  400db0 <exit@plt>
  400f31:	48 8d 3d d6 1e 00 00 	lea    0x1ed6(%rip),%rdi        # 402e0e <_IO_stdin_used+0x1ae>
  400f38:	b8 00 00 00 00       	mov    $0x0,%eax
  400f3d:	e8 1e fd ff ff       	callq  400c60 <printf@plt>
  400f42:	48 8d 3d a7 1d 00 00 	lea    0x1da7(%rip),%rdi        # 402cf0 <_IO_stdin_used+0x90>
  400f49:	e8 e2 fc ff ff       	callq  400c30 <puts@plt>
  400f4e:	48 8d 3d c3 1d 00 00 	lea    0x1dc3(%rip),%rdi        # 402d18 <_IO_stdin_used+0xb8>
  400f55:	e8 d6 fc ff ff       	callq  400c30 <puts@plt>
  400f5a:	48 8d 3d cb 1e 00 00 	lea    0x1ecb(%rip),%rdi        # 402e2c <_IO_stdin_used+0x1cc>
  400f61:	e8 ca fc ff ff       	callq  400c30 <puts@plt>
  400f66:	eb bf                	jmp    400f27 <usage+0x51>

0000000000400f68 <initialize_target>:
  400f68:	55                   	push   %rbp
  400f69:	53                   	push   %rbx
  400f6a:	48 81 ec 08 21 00 00 	sub    $0x2108,%rsp
  400f71:	89 f5                	mov    %esi,%ebp
  400f73:	89 3d 7f 35 20 00    	mov    %edi,0x20357f(%rip)        # 6044f8 <check_level>
  400f79:	8b 3d b1 31 20 00    	mov    0x2031b1(%rip),%edi        # 604130 <target_id>
  400f7f:	e8 39 1c 00 00       	callq  402bbd <gencookie>
  400f84:	89 05 7a 35 20 00    	mov    %eax,0x20357a(%rip)        # 604504 <cookie>
  400f8a:	89 c7                	mov    %eax,%edi
  400f8c:	e8 2c 1c 00 00       	callq  402bbd <gencookie>
  400f91:	89 05 69 35 20 00    	mov    %eax,0x203569(%rip)        # 604500 <authkey>
  400f97:	8b 05 93 31 20 00    	mov    0x203193(%rip),%eax        # 604130 <target_id>
  400f9d:	8d 78 01             	lea    0x1(%rax),%edi
  400fa0:	e8 5b fc ff ff       	callq  400c00 <srandom@plt>
  400fa5:	e8 66 fd ff ff       	callq  400d10 <random@plt>
  400faa:	89 c7                	mov    %eax,%edi
  400fac:	e8 c3 02 00 00       	callq  401274 <scramble>
  400fb1:	89 c3                	mov    %eax,%ebx
  400fb3:	85 ed                	test   %ebp,%ebp
  400fb5:	75 3d                	jne    400ff4 <initialize_target+0x8c>
  400fb7:	b8 00 00 00 00       	mov    $0x0,%eax
  400fbc:	01 d8                	add    %ebx,%eax
  400fbe:	0f b7 c0             	movzwl %ax,%eax
  400fc1:	8d 04 c5 00 01 00 00 	lea    0x100(,%rax,8),%eax
  400fc8:	89 c0                	mov    %eax,%eax
  400fca:	48 89 05 af 34 20 00 	mov    %rax,0x2034af(%rip)        # 604480 <buf_offset>
  400fd1:	c6 05 50 41 20 00 63 	movb   $0x63,0x204150(%rip)        # 605128 <target_prefix>
  400fd8:	83 3d a9 34 20 00 00 	cmpl   $0x0,0x2034a9(%rip)        # 604488 <notify>
  400fdf:	74 09                	je     400fea <initialize_target+0x82>
  400fe1:	83 3d 20 35 20 00 00 	cmpl   $0x0,0x203520(%rip)        # 604508 <is_checker>
  400fe8:	74 22                	je     40100c <initialize_target+0xa4>
  400fea:	48 81 c4 08 21 00 00 	add    $0x2108,%rsp
  400ff1:	5b                   	pop    %rbx
  400ff2:	5d                   	pop    %rbp
  400ff3:	c3                   	retq   
  400ff4:	bf 00 00 00 00       	mov    $0x0,%edi
  400ff9:	e8 02 fd ff ff       	callq  400d00 <time@plt>
  400ffe:	89 c7                	mov    %eax,%edi
  401000:	e8 fb fb ff ff       	callq  400c00 <srandom@plt>
  401005:	e8 06 fd ff ff       	callq  400d10 <random@plt>
  40100a:	eb b0                	jmp    400fbc <initialize_target+0x54>
  40100c:	48 89 e7             	mov    %rsp,%rdi
  40100f:	be 00 01 00 00       	mov    $0x100,%esi
  401014:	e8 77 fd ff ff       	callq  400d90 <gethostname@plt>
  401019:	89 c3                	mov    %eax,%ebx
  40101b:	85 c0                	test   %eax,%eax
  40101d:	75 24                	jne    401043 <initialize_target+0xdb>
  40101f:	48 63 c3             	movslq %ebx,%rax
  401022:	48 8d 15 37 31 20 00 	lea    0x203137(%rip),%rdx        # 604160 <host_table>
  401029:	48 8b 3c c2          	mov    (%rdx,%rax,8),%rdi
  40102d:	48 85 ff             	test   %rdi,%rdi
  401030:	74 27                	je     401059 <initialize_target+0xf1>
  401032:	48 89 e6             	mov    %rsp,%rsi
  401035:	e8 a6 fb ff ff       	callq  400be0 <strcasecmp@plt>
  40103a:	85 c0                	test   %eax,%eax
  40103c:	74 1b                	je     401059 <initialize_target+0xf1>
  40103e:	83 c3 01             	add    $0x1,%ebx
  401041:	eb dc                	jmp    40101f <initialize_target+0xb7>
  401043:	48 8d 3d fe 1c 00 00 	lea    0x1cfe(%rip),%rdi        # 402d48 <_IO_stdin_used+0xe8>
  40104a:	e8 e1 fb ff ff       	callq  400c30 <puts@plt>
  40104f:	bf 08 00 00 00       	mov    $0x8,%edi
  401054:	e8 57 fd ff ff       	callq  400db0 <exit@plt>
  401059:	48 8d bc 24 00 01 00 	lea    0x100(%rsp),%rdi
  401060:	00 
  401061:	e8 dc 18 00 00       	callq  402942 <init_driver>
  401066:	85 c0                	test   %eax,%eax
  401068:	79 80                	jns    400fea <initialize_target+0x82>
  40106a:	48 8d b4 24 00 01 00 	lea    0x100(%rsp),%rsi
  401071:	00 
  401072:	48 8d 3d 07 1d 00 00 	lea    0x1d07(%rip),%rdi        # 402d80 <_IO_stdin_used+0x120>
  401079:	b8 00 00 00 00       	mov    $0x0,%eax
  40107e:	e8 dd fb ff ff       	callq  400c60 <printf@plt>
  401083:	bf 08 00 00 00       	mov    $0x8,%edi
  401088:	e8 23 fd ff ff       	callq  400db0 <exit@plt>

000000000040108d <main>:
  40108d:	41 56                	push   %r14
  40108f:	41 55                	push   %r13
  401091:	41 54                	push   %r12
  401093:	55                   	push   %rbp
  401094:	53                   	push   %rbx
  401095:	41 89 fc             	mov    %edi,%r12d
  401098:	48 89 f3             	mov    %rsi,%rbx
  40109b:	48 c7 c6 e8 1c 40 00 	mov    $0x401ce8,%rsi
  4010a2:	bf 0b 00 00 00       	mov    $0xb,%edi
  4010a7:	e8 04 fc ff ff       	callq  400cb0 <signal@plt>
  4010ac:	48 c7 c6 94 1c 40 00 	mov    $0x401c94,%rsi
  4010b3:	bf 07 00 00 00       	mov    $0x7,%edi
  4010b8:	e8 f3 fb ff ff       	callq  400cb0 <signal@plt>
  4010bd:	48 c7 c6 3c 1d 40 00 	mov    $0x401d3c,%rsi
  4010c4:	bf 04 00 00 00       	mov    $0x4,%edi
  4010c9:	e8 e2 fb ff ff       	callq  400cb0 <signal@plt>
  4010ce:	83 3d 33 34 20 00 00 	cmpl   $0x0,0x203433(%rip)        # 604508 <is_checker>
  4010d5:	75 58                	jne    40112f <main+0xa2>
  4010d7:	48 8d 2d 67 1d 00 00 	lea    0x1d67(%rip),%rbp        # 402e45 <_IO_stdin_used+0x1e5>
  4010de:	48 8b 05 bb 33 20 00 	mov    0x2033bb(%rip),%rax        # 6044a0 <stdin@@GLIBC_2.2.5>
  4010e5:	48 89 05 04 34 20 00 	mov    %rax,0x203404(%rip)        # 6044f0 <infile>
  4010ec:	41 bd 00 00 00 00    	mov    $0x0,%r13d
  4010f2:	41 be 00 00 00 00    	mov    $0x0,%r14d
  4010f8:	48 89 ea             	mov    %rbp,%rdx
  4010fb:	48 89 de             	mov    %rbx,%rsi
  4010fe:	44 89 e7             	mov    %r12d,%edi
  401101:	e8 6a fc ff ff       	callq  400d70 <getopt@plt>
  401106:	3c ff                	cmp    $0xff,%al
  401108:	0f 84 f8 00 00 00    	je     401206 <main+0x179>
  40110e:	0f be f0             	movsbl %al,%esi
  401111:	83 e8 61             	sub    $0x61,%eax
  401114:	3c 10                	cmp    $0x10,%al
  401116:	0f 87 d1 00 00 00    	ja     4011ed <main+0x160>
  40111c:	0f b6 c0             	movzbl %al,%eax
  40111f:	48 8d 15 6a 1d 00 00 	lea    0x1d6a(%rip),%rdx        # 402e90 <_IO_stdin_used+0x230>
  401126:	48 63 04 82          	movslq (%rdx,%rax,4),%rax
  40112a:	48 01 d0             	add    %rdx,%rax
  40112d:	ff e0                	jmpq   *%rax
  40112f:	48 c7 c6 90 1d 40 00 	mov    $0x401d90,%rsi
  401136:	bf 0e 00 00 00       	mov    $0xe,%edi
  40113b:	e8 70 fb ff ff       	callq  400cb0 <signal@plt>
  401140:	bf 05 00 00 00       	mov    $0x5,%edi
  401145:	e8 36 fb ff ff       	callq  400c80 <alarm@plt>
  40114a:	48 8d 2d f9 1c 00 00 	lea    0x1cf9(%rip),%rbp        # 402e4a <_IO_stdin_used+0x1ea>
  401151:	eb 8b                	jmp    4010de <main+0x51>
  401153:	48 8b 3b             	mov    (%rbx),%rdi
  401156:	e8 7b fd ff ff       	callq  400ed6 <usage>
  40115b:	48 8d 35 4b 1f 00 00 	lea    0x1f4b(%rip),%rsi        # 4030ad <_IO_stdin_used+0x44d>
  401162:	48 8b 3d 3f 33 20 00 	mov    0x20333f(%rip),%rdi        # 6044a8 <optarg@@GLIBC_2.2.5>
  401169:	e8 f2 fb ff ff       	callq  400d60 <fopen@plt>
  40116e:	48 89 05 7b 33 20 00 	mov    %rax,0x20337b(%rip)        # 6044f0 <infile>
  401175:	48 85 c0             	test   %rax,%rax
  401178:	0f 85 7a ff ff ff    	jne    4010f8 <main+0x6b>
  40117e:	48 8b 15 23 33 20 00 	mov    0x203323(%rip),%rdx        # 6044a8 <optarg@@GLIBC_2.2.5>
  401185:	48 8d 35 c6 1c 00 00 	lea    0x1cc6(%rip),%rsi        # 402e52 <_IO_stdin_used+0x1f2>
  40118c:	48 8b 3d 2d 33 20 00 	mov    0x20332d(%rip),%rdi        # 6044c0 <stderr@@GLIBC_2.2.5>
  401193:	e8 38 fb ff ff       	callq  400cd0 <fprintf@plt>
  401198:	b8 01 00 00 00       	mov    $0x1,%eax
  40119d:	e9 c9 00 00 00       	jmpq   40126b <main+0x1de>
  4011a2:	ba 10 00 00 00       	mov    $0x10,%edx
  4011a7:	be 00 00 00 00       	mov    $0x0,%esi
  4011ac:	48 8b 3d f5 32 20 00 	mov    0x2032f5(%rip),%rdi        # 6044a8 <optarg@@GLIBC_2.2.5>
  4011b3:	e8 c8 fb ff ff       	callq  400d80 <strtoul@plt>
  4011b8:	41 89 c6             	mov    %eax,%r14d
  4011bb:	e9 38 ff ff ff       	jmpq   4010f8 <main+0x6b>
  4011c0:	ba 0a 00 00 00       	mov    $0xa,%edx
  4011c5:	be 00 00 00 00       	mov    $0x0,%esi
  4011ca:	48 8b 3d d7 32 20 00 	mov    0x2032d7(%rip),%rdi        # 6044a8 <optarg@@GLIBC_2.2.5>
  4011d1:	e8 0a fb ff ff       	callq  400ce0 <strtol@plt>
  4011d6:	41 89 c5             	mov    %eax,%r13d
  4011d9:	e9 1a ff ff ff       	jmpq   4010f8 <main+0x6b>
  4011de:	c7 05 a0 32 20 00 00 	movl   $0x0,0x2032a0(%rip)        # 604488 <notify>
  4011e5:	00 00 00 
  4011e8:	e9 0b ff ff ff       	jmpq   4010f8 <main+0x6b>
  4011ed:	48 8d 3d 7b 1c 00 00 	lea    0x1c7b(%rip),%rdi        # 402e6f <_IO_stdin_used+0x20f>
  4011f4:	b8 00 00 00 00       	mov    $0x0,%eax
  4011f9:	e8 62 fa ff ff       	callq  400c60 <printf@plt>
  4011fe:	48 8b 3b             	mov    (%rbx),%rdi
  401201:	e8 d0 fc ff ff       	callq  400ed6 <usage>
  401206:	be 00 00 00 00       	mov    $0x0,%esi
  40120b:	44 89 ef             	mov    %r13d,%edi
  40120e:	e8 55 fd ff ff       	callq  400f68 <initialize_target>
  401213:	83 3d ee 32 20 00 00 	cmpl   $0x0,0x2032ee(%rip)        # 604508 <is_checker>
  40121a:	74 27                	je     401243 <main+0x1b6>
  40121c:	44 3b 35 dd 32 20 00 	cmp    0x2032dd(%rip),%r14d        # 604500 <authkey>
  401223:	74 1e                	je     401243 <main+0x1b6>
  401225:	44 89 f6             	mov    %r14d,%esi
  401228:	48 8d 3d 79 1b 00 00 	lea    0x1b79(%rip),%rdi        # 402da8 <_IO_stdin_used+0x148>
  40122f:	b8 00 00 00 00       	mov    $0x0,%eax
  401234:	e8 27 fa ff ff       	callq  400c60 <printf@plt>
  401239:	b8 00 00 00 00       	mov    $0x0,%eax
  40123e:	e8 21 07 00 00       	callq  401964 <check_fail>
  401243:	8b 35 bb 32 20 00    	mov    0x2032bb(%rip),%esi        # 604504 <cookie>
  401249:	48 8d 3d 32 1c 00 00 	lea    0x1c32(%rip),%rdi        # 402e82 <_IO_stdin_used+0x222>
  401250:	b8 00 00 00 00       	mov    $0x0,%eax
  401255:	e8 06 fa ff ff       	callq  400c60 <printf@plt>
  40125a:	48 8b 3d 1f 32 20 00 	mov    0x20321f(%rip),%rdi        # 604480 <buf_offset>
  401261:	e8 05 0c 00 00       	callq  401e6b <stable_launch>
  401266:	b8 00 00 00 00       	mov    $0x0,%eax
  40126b:	5b                   	pop    %rbx
  40126c:	5d                   	pop    %rbp
  40126d:	41 5c                	pop    %r12
  40126f:	41 5d                	pop    %r13
  401271:	41 5e                	pop    %r14
  401273:	c3                   	retq   

0000000000401274 <scramble>:
  401274:	b8 00 00 00 00       	mov    $0x0,%eax
  401279:	eb 11                	jmp    40128c <scramble+0x18>
  40127b:	69 d0 84 4d 00 00    	imul   $0x4d84,%eax,%edx
  401281:	01 fa                	add    %edi,%edx
  401283:	89 c1                	mov    %eax,%ecx
  401285:	89 54 8c d0          	mov    %edx,-0x30(%rsp,%rcx,4)
  401289:	83 c0 01             	add    $0x1,%eax
  40128c:	83 f8 09             	cmp    $0x9,%eax
  40128f:	76 ea                	jbe    40127b <scramble+0x7>
  401291:	8b 44 24 d8          	mov    -0x28(%rsp),%eax
  401295:	69 c0 17 e7 00 00    	imul   $0xe717,%eax,%eax
  40129b:	89 44 24 d8          	mov    %eax,-0x28(%rsp)
  40129f:	8b 44 24 f0          	mov    -0x10(%rsp),%eax
  4012a3:	69 c0 01 4d 00 00    	imul   $0x4d01,%eax,%eax
  4012a9:	89 44 24 f0          	mov    %eax,-0x10(%rsp)
  4012ad:	8b 44 24 d0          	mov    -0x30(%rsp),%eax
  4012b1:	69 c0 97 d4 00 00    	imul   $0xd497,%eax,%eax
  4012b7:	89 44 24 d0          	mov    %eax,-0x30(%rsp)
  4012bb:	8b 44 24 e8          	mov    -0x18(%rsp),%eax
  4012bf:	69 c0 d7 5e 00 00    	imul   $0x5ed7,%eax,%eax
  4012c5:	89 44 24 e8          	mov    %eax,-0x18(%rsp)
  4012c9:	8b 44 24 e0          	mov    -0x20(%rsp),%eax
  4012cd:	69 c0 72 b8 00 00    	imul   $0xb872,%eax,%eax
  4012d3:	89 44 24 e0          	mov    %eax,-0x20(%rsp)
  4012d7:	8b 44 24 d0          	mov    -0x30(%rsp),%eax
  4012db:	69 c0 60 9a 00 00    	imul   $0x9a60,%eax,%eax
  4012e1:	89 44 24 d0          	mov    %eax,-0x30(%rsp)
  4012e5:	8b 44 24 e4          	mov    -0x1c(%rsp),%eax
  4012e9:	69 c0 a4 95 00 00    	imul   $0x95a4,%eax,%eax
  4012ef:	89 44 24 e4          	mov    %eax,-0x1c(%rsp)
  4012f3:	8b 44 24 e8          	mov    -0x18(%rsp),%eax
  4012f7:	69 c0 9c 17 00 00    	imul   $0x179c,%eax,%eax
  4012fd:	89 44 24 e8          	mov    %eax,-0x18(%rsp)
  401301:	8b 44 24 d4          	mov    -0x2c(%rsp),%eax
  401305:	69 c0 89 ed 00 00    	imul   $0xed89,%eax,%eax
  40130b:	89 44 24 d4          	mov    %eax,-0x2c(%rsp)
  40130f:	8b 44 24 f4          	mov    -0xc(%rsp),%eax
  401313:	69 c0 30 ab 00 00    	imul   $0xab30,%eax,%eax
  401319:	89 44 24 f4          	mov    %eax,-0xc(%rsp)
  40131d:	8b 44 24 f0          	mov    -0x10(%rsp),%eax
  401321:	69 c0 7b 87 00 00    	imul   $0x877b,%eax,%eax
  401327:	89 44 24 f0          	mov    %eax,-0x10(%rsp)
  40132b:	8b 44 24 d8          	mov    -0x28(%rsp),%eax
  40132f:	69 c0 ac 2d 00 00    	imul   $0x2dac,%eax,%eax
  401335:	89 44 24 d8          	mov    %eax,-0x28(%rsp)
  401339:	8b 44 24 e0          	mov    -0x20(%rsp),%eax
  40133d:	69 c0 00 bd 00 00    	imul   $0xbd00,%eax,%eax
  401343:	89 44 24 e0          	mov    %eax,-0x20(%rsp)
  401347:	8b 44 24 dc          	mov    -0x24(%rsp),%eax
  40134b:	69 c0 1b e9 00 00    	imul   $0xe91b,%eax,%eax
  401351:	89 44 24 dc          	mov    %eax,-0x24(%rsp)
  401355:	8b 44 24 f0          	mov    -0x10(%rsp),%eax
  401359:	69 c0 10 c4 00 00    	imul   $0xc410,%eax,%eax
  40135f:	89 44 24 f0          	mov    %eax,-0x10(%rsp)
  401363:	8b 44 24 dc          	mov    -0x24(%rsp),%eax
  401367:	69 c0 58 13 00 00    	imul   $0x1358,%eax,%eax
  40136d:	89 44 24 dc          	mov    %eax,-0x24(%rsp)
  401371:	8b 44 24 d4          	mov    -0x2c(%rsp),%eax
  401375:	69 c0 90 08 00 00    	imul   $0x890,%eax,%eax
  40137b:	89 44 24 d4          	mov    %eax,-0x2c(%rsp)
  40137f:	8b 44 24 f4          	mov    -0xc(%rsp),%eax
  401383:	69 c0 db e3 00 00    	imul   $0xe3db,%eax,%eax
  401389:	89 44 24 f4          	mov    %eax,-0xc(%rsp)
  40138d:	8b 44 24 e4          	mov    -0x1c(%rsp),%eax
  401391:	69 c0 81 17 00 00    	imul   $0x1781,%eax,%eax
  401397:	89 44 24 e4          	mov    %eax,-0x1c(%rsp)
  40139b:	8b 44 24 f4          	mov    -0xc(%rsp),%eax
  40139f:	69 c0 32 6d 00 00    	imul   $0x6d32,%eax,%eax
  4013a5:	89 44 24 f4          	mov    %eax,-0xc(%rsp)
  4013a9:	8b 44 24 f0          	mov    -0x10(%rsp),%eax
  4013ad:	69 c0 53 4f 00 00    	imul   $0x4f53,%eax,%eax
  4013b3:	89 44 24 f0          	mov    %eax,-0x10(%rsp)
  4013b7:	8b 44 24 ec          	mov    -0x14(%rsp),%eax
  4013bb:	69 c0 02 b9 00 00    	imul   $0xb902,%eax,%eax
  4013c1:	89 44 24 ec          	mov    %eax,-0x14(%rsp)
  4013c5:	8b 44 24 f0          	mov    -0x10(%rsp),%eax
  4013c9:	69 c0 e3 e5 00 00    	imul   $0xe5e3,%eax,%eax
  4013cf:	89 44 24 f0          	mov    %eax,-0x10(%rsp)
  4013d3:	8b 44 24 f0          	mov    -0x10(%rsp),%eax
  4013d7:	69 c0 d9 2f 00 00    	imul   $0x2fd9,%eax,%eax
  4013dd:	89 44 24 f0          	mov    %eax,-0x10(%rsp)
  4013e1:	8b 44 24 ec          	mov    -0x14(%rsp),%eax
  4013e5:	69 c0 83 46 00 00    	imul   $0x4683,%eax,%eax
  4013eb:	89 44 24 ec          	mov    %eax,-0x14(%rsp)
  4013ef:	8b 44 24 f0          	mov    -0x10(%rsp),%eax
  4013f3:	69 c0 8a 4d 00 00    	imul   $0x4d8a,%eax,%eax
  4013f9:	89 44 24 f0          	mov    %eax,-0x10(%rsp)
  4013fd:	8b 44 24 d0          	mov    -0x30(%rsp),%eax
  401401:	69 c0 af 1e 00 00    	imul   $0x1eaf,%eax,%eax
  401407:	89 44 24 d0          	mov    %eax,-0x30(%rsp)
  40140b:	8b 44 24 ec          	mov    -0x14(%rsp),%eax
  40140f:	69 c0 64 4e 00 00    	imul   $0x4e64,%eax,%eax
  401415:	89 44 24 ec          	mov    %eax,-0x14(%rsp)
  401419:	8b 44 24 f0          	mov    -0x10(%rsp),%eax
  40141d:	69 c0 8a 9c 00 00    	imul   $0x9c8a,%eax,%eax
  401423:	89 44 24 f0          	mov    %eax,-0x10(%rsp)
  401427:	8b 44 24 f0          	mov    -0x10(%rsp),%eax
  40142b:	69 c0 83 a1 00 00    	imul   $0xa183,%eax,%eax
  401431:	89 44 24 f0          	mov    %eax,-0x10(%rsp)
  401435:	8b 44 24 d4          	mov    -0x2c(%rsp),%eax
  401439:	69 c0 b6 b1 00 00    	imul   $0xb1b6,%eax,%eax
  40143f:	89 44 24 d4          	mov    %eax,-0x2c(%rsp)
  401443:	8b 44 24 d4          	mov    -0x2c(%rsp),%eax
  401447:	69 c0 c1 0b 00 00    	imul   $0xbc1,%eax,%eax
  40144d:	89 44 24 d4          	mov    %eax,-0x2c(%rsp)
  401451:	8b 44 24 ec          	mov    -0x14(%rsp),%eax
  401455:	69 c0 34 15 00 00    	imul   $0x1534,%eax,%eax
  40145b:	89 44 24 ec          	mov    %eax,-0x14(%rsp)
  40145f:	8b 44 24 dc          	mov    -0x24(%rsp),%eax
  401463:	69 c0 6e 97 00 00    	imul   $0x976e,%eax,%eax
  401469:	89 44 24 dc          	mov    %eax,-0x24(%rsp)
  40146d:	8b 44 24 f0          	mov    -0x10(%rsp),%eax
  401471:	69 c0 50 32 00 00    	imul   $0x3250,%eax,%eax
  401477:	89 44 24 f0          	mov    %eax,-0x10(%rsp)
  40147b:	8b 44 24 dc          	mov    -0x24(%rsp),%eax
  40147f:	69 c0 a9 fc 00 00    	imul   $0xfca9,%eax,%eax
  401485:	89 44 24 dc          	mov    %eax,-0x24(%rsp)
  401489:	8b 44 24 ec          	mov    -0x14(%rsp),%eax
  40148d:	69 c0 32 0c 00 00    	imul   $0xc32,%eax,%eax
  401493:	89 44 24 ec          	mov    %eax,-0x14(%rsp)
  401497:	8b 44 24 d4          	mov    -0x2c(%rsp),%eax
  40149b:	69 c0 9b 66 00 00    	imul   $0x669b,%eax,%eax
  4014a1:	89 44 24 d4          	mov    %eax,-0x2c(%rsp)
  4014a5:	8b 44 24 f0          	mov    -0x10(%rsp),%eax
  4014a9:	69 c0 49 86 00 00    	imul   $0x8649,%eax,%eax
  4014af:	89 44 24 f0          	mov    %eax,-0x10(%rsp)
  4014b3:	8b 44 24 e8          	mov    -0x18(%rsp),%eax
  4014b7:	69 c0 82 c5 00 00    	imul   $0xc582,%eax,%eax
  4014bd:	89 44 24 e8          	mov    %eax,-0x18(%rsp)
  4014c1:	8b 44 24 e0          	mov    -0x20(%rsp),%eax
  4014c5:	69 c0 7e 71 00 00    	imul   $0x717e,%eax,%eax
  4014cb:	89 44 24 e0          	mov    %eax,-0x20(%rsp)
  4014cf:	8b 44 24 d4          	mov    -0x2c(%rsp),%eax
  4014d3:	69 c0 ca 9a 00 00    	imul   $0x9aca,%eax,%eax
  4014d9:	89 44 24 d4          	mov    %eax,-0x2c(%rsp)
  4014dd:	8b 44 24 d4          	mov    -0x2c(%rsp),%eax
  4014e1:	69 c0 42 8e 00 00    	imul   $0x8e42,%eax,%eax
  4014e7:	89 44 24 d4          	mov    %eax,-0x2c(%rsp)
  4014eb:	8b 44 24 d0          	mov    -0x30(%rsp),%eax
  4014ef:	69 c0 dd 6b 00 00    	imul   $0x6bdd,%eax,%eax
  4014f5:	89 44 24 d0          	mov    %eax,-0x30(%rsp)
  4014f9:	8b 44 24 d8          	mov    -0x28(%rsp),%eax
  4014fd:	69 c0 af 20 00 00    	imul   $0x20af,%eax,%eax
  401503:	89 44 24 d8          	mov    %eax,-0x28(%rsp)
  401507:	8b 44 24 ec          	mov    -0x14(%rsp),%eax
  40150b:	69 c0 67 8b 00 00    	imul   $0x8b67,%eax,%eax
  401511:	89 44 24 ec          	mov    %eax,-0x14(%rsp)
  401515:	8b 44 24 e0          	mov    -0x20(%rsp),%eax
  401519:	69 c0 3b c2 00 00    	imul   $0xc23b,%eax,%eax
  40151f:	89 44 24 e0          	mov    %eax,-0x20(%rsp)
  401523:	8b 44 24 ec          	mov    -0x14(%rsp),%eax
  401527:	69 c0 ac 8c 00 00    	imul   $0x8cac,%eax,%eax
  40152d:	89 44 24 ec          	mov    %eax,-0x14(%rsp)
  401531:	8b 44 24 d4          	mov    -0x2c(%rsp),%eax
  401535:	69 c0 c5 86 00 00    	imul   $0x86c5,%eax,%eax
  40153b:	89 44 24 d4          	mov    %eax,-0x2c(%rsp)
  40153f:	8b 44 24 e4          	mov    -0x1c(%rsp),%eax
  401543:	69 c0 24 04 00 00    	imul   $0x424,%eax,%eax
  401549:	89 44 24 e4          	mov    %eax,-0x1c(%rsp)
  40154d:	8b 44 24 ec          	mov    -0x14(%rsp),%eax
  401551:	69 c0 bb 28 00 00    	imul   $0x28bb,%eax,%eax
  401557:	89 44 24 ec          	mov    %eax,-0x14(%rsp)
  40155b:	8b 44 24 f0          	mov    -0x10(%rsp),%eax
  40155f:	69 c0 b9 3a 00 00    	imul   $0x3ab9,%eax,%eax
  401565:	89 44 24 f0          	mov    %eax,-0x10(%rsp)
  401569:	8b 44 24 e0          	mov    -0x20(%rsp),%eax
  40156d:	69 c0 78 b6 00 00    	imul   $0xb678,%eax,%eax
  401573:	89 44 24 e0          	mov    %eax,-0x20(%rsp)
  401577:	8b 44 24 dc          	mov    -0x24(%rsp),%eax
  40157b:	69 c0 03 27 00 00    	imul   $0x2703,%eax,%eax
  401581:	89 44 24 dc          	mov    %eax,-0x24(%rsp)
  401585:	8b 44 24 dc          	mov    -0x24(%rsp),%eax
  401589:	69 c0 c8 37 00 00    	imul   $0x37c8,%eax,%eax
  40158f:	89 44 24 dc          	mov    %eax,-0x24(%rsp)
  401593:	8b 44 24 f0          	mov    -0x10(%rsp),%eax
  401597:	69 c0 8d 09 00 00    	imul   $0x98d,%eax,%eax
  40159d:	89 44 24 f0          	mov    %eax,-0x10(%rsp)
  4015a1:	8b 44 24 d0          	mov    -0x30(%rsp),%eax
  4015a5:	69 c0 91 ff 00 00    	imul   $0xff91,%eax,%eax
  4015ab:	89 44 24 d0          	mov    %eax,-0x30(%rsp)
  4015af:	8b 44 24 dc          	mov    -0x24(%rsp),%eax
  4015b3:	69 c0 74 39 00 00    	imul   $0x3974,%eax,%eax
  4015b9:	89 44 24 dc          	mov    %eax,-0x24(%rsp)
  4015bd:	8b 44 24 dc          	mov    -0x24(%rsp),%eax
  4015c1:	69 c0 87 8d 00 00    	imul   $0x8d87,%eax,%eax
  4015c7:	89 44 24 dc          	mov    %eax,-0x24(%rsp)
  4015cb:	8b 44 24 d8          	mov    -0x28(%rsp),%eax
  4015cf:	69 c0 a0 b8 00 00    	imul   $0xb8a0,%eax,%eax
  4015d5:	89 44 24 d8          	mov    %eax,-0x28(%rsp)
  4015d9:	8b 44 24 ec          	mov    -0x14(%rsp),%eax
  4015dd:	69 c0 b1 b2 00 00    	imul   $0xb2b1,%eax,%eax
  4015e3:	89 44 24 ec          	mov    %eax,-0x14(%rsp)
  4015e7:	8b 44 24 d8          	mov    -0x28(%rsp),%eax
  4015eb:	69 c0 9b 80 00 00    	imul   $0x809b,%eax,%eax
  4015f1:	89 44 24 d8          	mov    %eax,-0x28(%rsp)
  4015f5:	8b 44 24 d8          	mov    -0x28(%rsp),%eax
  4015f9:	69 c0 2f db 00 00    	imul   $0xdb2f,%eax,%eax
  4015ff:	89 44 24 d8          	mov    %eax,-0x28(%rsp)
  401603:	8b 44 24 ec          	mov    -0x14(%rsp),%eax
  401607:	69 c0 5b 4c 00 00    	imul   $0x4c5b,%eax,%eax
  40160d:	89 44 24 ec          	mov    %eax,-0x14(%rsp)
  401611:	8b 44 24 d4          	mov    -0x2c(%rsp),%eax
  401615:	69 c0 63 31 00 00    	imul   $0x3163,%eax,%eax
  40161b:	89 44 24 d4          	mov    %eax,-0x2c(%rsp)
  40161f:	8b 44 24 d8          	mov    -0x28(%rsp),%eax
  401623:	69 c0 0a 1b 00 00    	imul   $0x1b0a,%eax,%eax
  401629:	89 44 24 d8          	mov    %eax,-0x28(%rsp)
  40162d:	8b 44 24 dc          	mov    -0x24(%rsp),%eax
  401631:	69 c0 4d 51 00 00    	imul   $0x514d,%eax,%eax
  401637:	89 44 24 dc          	mov    %eax,-0x24(%rsp)
  40163b:	8b 44 24 ec          	mov    -0x14(%rsp),%eax
  40163f:	69 c0 0c 8f 00 00    	imul   $0x8f0c,%eax,%eax
  401645:	89 44 24 ec          	mov    %eax,-0x14(%rsp)
  401649:	8b 44 24 d8          	mov    -0x28(%rsp),%eax
  40164d:	69 c0 17 f7 00 00    	imul   $0xf717,%eax,%eax
  401653:	89 44 24 d8          	mov    %eax,-0x28(%rsp)
  401657:	8b 44 24 d8          	mov    -0x28(%rsp),%eax
  40165b:	69 c0 87 44 00 00    	imul   $0x4487,%eax,%eax
  401661:	89 44 24 d8          	mov    %eax,-0x28(%rsp)
  401665:	8b 44 24 e0          	mov    -0x20(%rsp),%eax
  401669:	69 c0 95 a2 00 00    	imul   $0xa295,%eax,%eax
  40166f:	89 44 24 e0          	mov    %eax,-0x20(%rsp)
  401673:	8b 44 24 e4          	mov    -0x1c(%rsp),%eax
  401677:	69 c0 26 d8 00 00    	imul   $0xd826,%eax,%eax
  40167d:	89 44 24 e4          	mov    %eax,-0x1c(%rsp)
  401681:	8b 44 24 e0          	mov    -0x20(%rsp),%eax
  401685:	69 c0 6c f2 00 00    	imul   $0xf26c,%eax,%eax
  40168b:	89 44 24 e0          	mov    %eax,-0x20(%rsp)
  40168f:	8b 44 24 ec          	mov    -0x14(%rsp),%eax
  401693:	69 c0 fa 2f 00 00    	imul   $0x2ffa,%eax,%eax
  401699:	89 44 24 ec          	mov    %eax,-0x14(%rsp)
  40169d:	8b 44 24 e0          	mov    -0x20(%rsp),%eax
  4016a1:	69 c0 eb b6 00 00    	imul   $0xb6eb,%eax,%eax
  4016a7:	89 44 24 e0          	mov    %eax,-0x20(%rsp)
  4016ab:	8b 44 24 e8          	mov    -0x18(%rsp),%eax
  4016af:	69 c0 29 2e 00 00    	imul   $0x2e29,%eax,%eax
  4016b5:	89 44 24 e8          	mov    %eax,-0x18(%rsp)
  4016b9:	8b 44 24 d4          	mov    -0x2c(%rsp),%eax
  4016bd:	69 c0 a1 2c 00 00    	imul   $0x2ca1,%eax,%eax
  4016c3:	89 44 24 d4          	mov    %eax,-0x2c(%rsp)
  4016c7:	8b 44 24 e4          	mov    -0x1c(%rsp),%eax
  4016cb:	69 c0 88 de 00 00    	imul   $0xde88,%eax,%eax
  4016d1:	89 44 24 e4          	mov    %eax,-0x1c(%rsp)
  4016d5:	8b 44 24 f4          	mov    -0xc(%rsp),%eax
  4016d9:	69 c0 0d bc 00 00    	imul   $0xbc0d,%eax,%eax
  4016df:	89 44 24 f4          	mov    %eax,-0xc(%rsp)
  4016e3:	8b 44 24 e8          	mov    -0x18(%rsp),%eax
  4016e7:	69 c0 c6 69 00 00    	imul   $0x69c6,%eax,%eax
  4016ed:	89 44 24 e8          	mov    %eax,-0x18(%rsp)
  4016f1:	8b 44 24 e8          	mov    -0x18(%rsp),%eax
  4016f5:	69 c0 63 7b 00 00    	imul   $0x7b63,%eax,%eax
  4016fb:	89 44 24 e8          	mov    %eax,-0x18(%rsp)
  4016ff:	8b 44 24 e0          	mov    -0x20(%rsp),%eax
  401703:	69 c0 8e 47 00 00    	imul   $0x478e,%eax,%eax
  401709:	89 44 24 e0          	mov    %eax,-0x20(%rsp)
  40170d:	8b 44 24 dc          	mov    -0x24(%rsp),%eax
  401711:	69 c0 94 da 00 00    	imul   $0xda94,%eax,%eax
  401717:	89 44 24 dc          	mov    %eax,-0x24(%rsp)
  40171b:	8b 44 24 d4          	mov    -0x2c(%rsp),%eax
  40171f:	69 c0 75 d4 00 00    	imul   $0xd475,%eax,%eax
  401725:	89 44 24 d4          	mov    %eax,-0x2c(%rsp)
  401729:	ba 00 00 00 00       	mov    $0x0,%edx
  40172e:	b8 00 00 00 00       	mov    $0x0,%eax
  401733:	eb 0b                	jmp    401740 <scramble+0x4cc>
  401735:	89 d1                	mov    %edx,%ecx
  401737:	8b 4c 8c d0          	mov    -0x30(%rsp,%rcx,4),%ecx
  40173b:	01 c8                	add    %ecx,%eax
  40173d:	83 c2 01             	add    $0x1,%edx
  401740:	83 fa 09             	cmp    $0x9,%edx
  401743:	76 f0                	jbe    401735 <scramble+0x4c1>
  401745:	f3 c3                	repz retq 

0000000000401747 <getbuf>:
  401747:	48 83 ec 28          	sub    $0x28,%rsp
  40174b:	48 89 e7             	mov    %rsp,%rdi
  40174e:	e8 44 02 00 00       	callq  401997 <Gets>
  401753:	b8 01 00 00 00       	mov    $0x1,%eax
  401758:	48 83 c4 28          	add    $0x28,%rsp
  40175c:	c3                   	retq   

000000000040175d <touch1>:
  40175d:	48 83 ec 08          	sub    $0x8,%rsp
  401761:	c7 05 91 2d 20 00 01 	movl   $0x1,0x202d91(%rip)        # 6044fc <vlevel>
  401768:	00 00 00 
  40176b:	48 8d 3d 8f 17 00 00 	lea    0x178f(%rip),%rdi        # 402f01 <_IO_stdin_used+0x2a1>
  401772:	e8 b9 f4 ff ff       	callq  400c30 <puts@plt>
  401777:	bf 01 00 00 00       	mov    $0x1,%edi
  40177c:	e8 2d 04 00 00       	callq  401bae <validate>
  401781:	bf 00 00 00 00       	mov    $0x0,%edi
  401786:	e8 25 f6 ff ff       	callq  400db0 <exit@plt>

000000000040178b <touch2>:
  40178b:	48 83 ec 08          	sub    $0x8,%rsp
  40178f:	89 fe                	mov    %edi,%esi
  401791:	c7 05 61 2d 20 00 02 	movl   $0x2,0x202d61(%rip)        # 6044fc <vlevel>
  401798:	00 00 00 
  40179b:	39 3d 63 2d 20 00    	cmp    %edi,0x202d63(%rip)        # 604504 <cookie>
  4017a1:	74 25                	je     4017c8 <touch2+0x3d>
  4017a3:	48 8d 3d a6 17 00 00 	lea    0x17a6(%rip),%rdi        # 402f50 <_IO_stdin_used+0x2f0>
  4017aa:	b8 00 00 00 00       	mov    $0x0,%eax
  4017af:	e8 ac f4 ff ff       	callq  400c60 <printf@plt>
  4017b4:	bf 02 00 00 00       	mov    $0x2,%edi
  4017b9:	e8 ae 04 00 00       	callq  401c6c <fail>
  4017be:	bf 00 00 00 00       	mov    $0x0,%edi
  4017c3:	e8 e8 f5 ff ff       	callq  400db0 <exit@plt>
  4017c8:	48 8d 3d 59 17 00 00 	lea    0x1759(%rip),%rdi        # 402f28 <_IO_stdin_used+0x2c8>
  4017cf:	b8 00 00 00 00       	mov    $0x0,%eax
  4017d4:	e8 87 f4 ff ff       	callq  400c60 <printf@plt>
  4017d9:	bf 02 00 00 00       	mov    $0x2,%edi
  4017de:	e8 cb 03 00 00       	callq  401bae <validate>
  4017e3:	eb d9                	jmp    4017be <touch2+0x33>

00000000004017e5 <hexmatch>:
  4017e5:	41 54                	push   %r12
  4017e7:	55                   	push   %rbp
  4017e8:	53                   	push   %rbx
  4017e9:	48 83 ec 70          	sub    $0x70,%rsp
  4017ed:	89 fd                	mov    %edi,%ebp
  4017ef:	48 89 f3             	mov    %rsi,%rbx
  4017f2:	e8 19 f5 ff ff       	callq  400d10 <random@plt>
  4017f7:	48 89 c1             	mov    %rax,%rcx
  4017fa:	48 ba 0b d7 a3 70 3d 	movabs $0xa3d70a3d70a3d70b,%rdx
  401801:	0a d7 a3 
  401804:	48 f7 ea             	imul   %rdx
  401807:	48 01 ca             	add    %rcx,%rdx
  40180a:	48 c1 fa 06          	sar    $0x6,%rdx
  40180e:	48 89 c8             	mov    %rcx,%rax
  401811:	48 c1 f8 3f          	sar    $0x3f,%rax
  401815:	48 29 c2             	sub    %rax,%rdx
  401818:	48 8d 04 92          	lea    (%rdx,%rdx,4),%rax
  40181c:	48 8d 14 80          	lea    (%rax,%rax,4),%rdx
  401820:	48 8d 04 95 00 00 00 	lea    0x0(,%rdx,4),%rax
  401827:	00 
  401828:	48 29 c1             	sub    %rax,%rcx
  40182b:	4c 8d 24 0c          	lea    (%rsp,%rcx,1),%r12
  40182f:	89 ea                	mov    %ebp,%edx
  401831:	48 8d 35 e6 16 00 00 	lea    0x16e6(%rip),%rsi        # 402f1e <_IO_stdin_used+0x2be>
  401838:	4c 89 e7             	mov    %r12,%rdi
  40183b:	b8 00 00 00 00       	mov    $0x0,%eax
  401840:	e8 5b f5 ff ff       	callq  400da0 <sprintf@plt>
  401845:	ba 09 00 00 00       	mov    $0x9,%edx
  40184a:	4c 89 e6             	mov    %r12,%rsi
  40184d:	48 89 df             	mov    %rbx,%rdi
  401850:	e8 bb f3 ff ff       	callq  400c10 <strncmp@plt>
  401855:	85 c0                	test   %eax,%eax
  401857:	0f 94 c0             	sete   %al
  40185a:	0f b6 c0             	movzbl %al,%eax
  40185d:	48 83 c4 70          	add    $0x70,%rsp
  401861:	5b                   	pop    %rbx
  401862:	5d                   	pop    %rbp
  401863:	41 5c                	pop    %r12
  401865:	c3                   	retq   

0000000000401866 <touch3>:
  401866:	53                   	push   %rbx
  401867:	48 89 fb             	mov    %rdi,%rbx
  40186a:	c7 05 88 2c 20 00 03 	movl   $0x3,0x202c88(%rip)        # 6044fc <vlevel>
  401871:	00 00 00 
  401874:	48 89 fe             	mov    %rdi,%rsi
  401877:	8b 3d 87 2c 20 00    	mov    0x202c87(%rip),%edi        # 604504 <cookie>
  40187d:	e8 63 ff ff ff       	callq  4017e5 <hexmatch>
  401882:	85 c0                	test   %eax,%eax
  401884:	74 28                	je     4018ae <touch3+0x48>
  401886:	48 89 de             	mov    %rbx,%rsi
  401889:	48 8d 3d e8 16 00 00 	lea    0x16e8(%rip),%rdi        # 402f78 <_IO_stdin_used+0x318>
  401890:	b8 00 00 00 00       	mov    $0x0,%eax
  401895:	e8 c6 f3 ff ff       	callq  400c60 <printf@plt>
  40189a:	bf 03 00 00 00       	mov    $0x3,%edi
  40189f:	e8 0a 03 00 00       	callq  401bae <validate>
  4018a4:	bf 00 00 00 00       	mov    $0x0,%edi
  4018a9:	e8 02 f5 ff ff       	callq  400db0 <exit@plt>
  4018ae:	48 89 de             	mov    %rbx,%rsi
  4018b1:	48 8d 3d e8 16 00 00 	lea    0x16e8(%rip),%rdi        # 402fa0 <_IO_stdin_used+0x340>
  4018b8:	b8 00 00 00 00       	mov    $0x0,%eax
  4018bd:	e8 9e f3 ff ff       	callq  400c60 <printf@plt>
  4018c2:	bf 03 00 00 00       	mov    $0x3,%edi
  4018c7:	e8 a0 03 00 00       	callq  401c6c <fail>
  4018cc:	eb d6                	jmp    4018a4 <touch3+0x3e>

00000000004018ce <test>:
  4018ce:	48 83 ec 08          	sub    $0x8,%rsp
  4018d2:	b8 00 00 00 00       	mov    $0x0,%eax
  4018d7:	e8 6b fe ff ff       	callq  401747 <getbuf>
  4018dc:	89 c6                	mov    %eax,%esi
  4018de:	48 8d 3d e3 16 00 00 	lea    0x16e3(%rip),%rdi        # 402fc8 <_IO_stdin_used+0x368>
  4018e5:	b8 00 00 00 00       	mov    $0x0,%eax
  4018ea:	e8 71 f3 ff ff       	callq  400c60 <printf@plt>
  4018ef:	48 83 c4 08          	add    $0x8,%rsp
  4018f3:	c3                   	retq   

00000000004018f4 <save_char>:
  4018f4:	8b 05 2a 38 20 00    	mov    0x20382a(%rip),%eax        # 605124 <gets_cnt>
  4018fa:	3d ff 03 00 00       	cmp    $0x3ff,%eax
  4018ff:	7f 4a                	jg     40194b <save_char+0x57>
  401901:	8d 14 40             	lea    (%rax,%rax,2),%edx
  401904:	89 f9                	mov    %edi,%ecx
  401906:	c0 e9 04             	shr    $0x4,%cl
  401909:	4c 8d 05 e0 19 00 00 	lea    0x19e0(%rip),%r8        # 4032f0 <trans_char>
  401910:	83 e1 0f             	and    $0xf,%ecx
  401913:	45 0f b6 0c 08       	movzbl (%r8,%rcx,1),%r9d
  401918:	48 8d 0d 01 2c 20 00 	lea    0x202c01(%rip),%rcx        # 604520 <gets_buf>
  40191f:	48 63 f2             	movslq %edx,%rsi
  401922:	44 88 0c 31          	mov    %r9b,(%rcx,%rsi,1)
  401926:	8d 72 01             	lea    0x1(%rdx),%esi
  401929:	83 e7 0f             	and    $0xf,%edi
  40192c:	41 0f b6 3c 38       	movzbl (%r8,%rdi,1),%edi
  401931:	48 63 f6             	movslq %esi,%rsi
  401934:	40 88 3c 31          	mov    %dil,(%rcx,%rsi,1)
  401938:	83 c2 02             	add    $0x2,%edx
  40193b:	48 63 d2             	movslq %edx,%rdx
  40193e:	c6 04 11 20          	movb   $0x20,(%rcx,%rdx,1)
  401942:	83 c0 01             	add    $0x1,%eax
  401945:	89 05 d9 37 20 00    	mov    %eax,0x2037d9(%rip)        # 605124 <gets_cnt>
  40194b:	f3 c3                	repz retq 

000000000040194d <save_term>:
  40194d:	8b 05 d1 37 20 00    	mov    0x2037d1(%rip),%eax        # 605124 <gets_cnt>
  401953:	8d 04 40             	lea    (%rax,%rax,2),%eax
  401956:	48 98                	cltq   
  401958:	48 8d 15 c1 2b 20 00 	lea    0x202bc1(%rip),%rdx        # 604520 <gets_buf>
  40195f:	c6 04 02 00          	movb   $0x0,(%rdx,%rax,1)
  401963:	c3                   	retq   

0000000000401964 <check_fail>:
  401964:	48 83 ec 08          	sub    $0x8,%rsp
  401968:	0f be 35 b9 37 20 00 	movsbl 0x2037b9(%rip),%esi        # 605128 <target_prefix>
  40196f:	48 8d 0d aa 2b 20 00 	lea    0x202baa(%rip),%rcx        # 604520 <gets_buf>
  401976:	8b 15 7c 2b 20 00    	mov    0x202b7c(%rip),%edx        # 6044f8 <check_level>
  40197c:	48 8d 3d 68 16 00 00 	lea    0x1668(%rip),%rdi        # 402feb <_IO_stdin_used+0x38b>
  401983:	b8 00 00 00 00       	mov    $0x0,%eax
  401988:	e8 d3 f2 ff ff       	callq  400c60 <printf@plt>
  40198d:	bf 01 00 00 00       	mov    $0x1,%edi
  401992:	e8 19 f4 ff ff       	callq  400db0 <exit@plt>

0000000000401997 <Gets>:
  401997:	41 54                	push   %r12
  401999:	55                   	push   %rbp
  40199a:	53                   	push   %rbx
  40199b:	49 89 fc             	mov    %rdi,%r12
  40199e:	c7 05 7c 37 20 00 00 	movl   $0x0,0x20377c(%rip)        # 605124 <gets_cnt>
  4019a5:	00 00 00 
  4019a8:	48 89 fb             	mov    %rdi,%rbx
  4019ab:	eb 11                	jmp    4019be <Gets+0x27>
  4019ad:	48 8d 6b 01          	lea    0x1(%rbx),%rbp
  4019b1:	88 03                	mov    %al,(%rbx)
  4019b3:	0f b6 f8             	movzbl %al,%edi
  4019b6:	e8 39 ff ff ff       	callq  4018f4 <save_char>
  4019bb:	48 89 eb             	mov    %rbp,%rbx
  4019be:	48 8b 3d 2b 2b 20 00 	mov    0x202b2b(%rip),%rdi        # 6044f0 <infile>
  4019c5:	e8 56 f3 ff ff       	callq  400d20 <_IO_getc@plt>
  4019ca:	83 f8 ff             	cmp    $0xffffffff,%eax
  4019cd:	74 05                	je     4019d4 <Gets+0x3d>
  4019cf:	83 f8 0a             	cmp    $0xa,%eax
  4019d2:	75 d9                	jne    4019ad <Gets+0x16>
  4019d4:	c6 03 00             	movb   $0x0,(%rbx)
  4019d7:	b8 00 00 00 00       	mov    $0x0,%eax
  4019dc:	e8 6c ff ff ff       	callq  40194d <save_term>
  4019e1:	4c 89 e0             	mov    %r12,%rax
  4019e4:	5b                   	pop    %rbx
  4019e5:	5d                   	pop    %rbp
  4019e6:	41 5c                	pop    %r12
  4019e8:	c3                   	retq   

00000000004019e9 <notify_server>:
  4019e9:	83 3d 18 2b 20 00 00 	cmpl   $0x0,0x202b18(%rip)        # 604508 <is_checker>
  4019f0:	0f 85 de 00 00 00    	jne    401ad4 <notify_server+0xeb>
  4019f6:	55                   	push   %rbp
  4019f7:	53                   	push   %rbx
  4019f8:	48 81 ec 08 40 00 00 	sub    $0x4008,%rsp
  4019ff:	89 fb                	mov    %edi,%ebx
  401a01:	8b 05 1d 37 20 00    	mov    0x20371d(%rip),%eax        # 605124 <gets_cnt>
  401a07:	83 c0 64             	add    $0x64,%eax
  401a0a:	3d 00 20 00 00       	cmp    $0x2000,%eax
  401a0f:	0f 8f c1 00 00 00    	jg     401ad6 <notify_server+0xed>
  401a15:	44 0f be 0d 0b 37 20 	movsbl 0x20370b(%rip),%r9d        # 605128 <target_prefix>
  401a1c:	00 
  401a1d:	83 3d 64 2a 20 00 00 	cmpl   $0x0,0x202a64(%rip)        # 604488 <notify>
  401a24:	0f 84 c7 00 00 00    	je     401af1 <notify_server+0x108>
  401a2a:	44 8b 05 cf 2a 20 00 	mov    0x202acf(%rip),%r8d        # 604500 <authkey>
  401a31:	85 db                	test   %ebx,%ebx
  401a33:	0f 84 c3 00 00 00    	je     401afc <notify_server+0x113>
  401a39:	48 8d 2d c1 15 00 00 	lea    0x15c1(%rip),%rbp        # 403001 <_IO_stdin_used+0x3a1>
  401a40:	48 8d bc 24 00 20 00 	lea    0x2000(%rsp),%rdi
  401a47:	00 
  401a48:	48 8d 05 d1 2a 20 00 	lea    0x202ad1(%rip),%rax        # 604520 <gets_buf>
  401a4f:	50                   	push   %rax
  401a50:	56                   	push   %rsi
  401a51:	48 89 e9             	mov    %rbp,%rcx
  401a54:	8b 15 d6 26 20 00    	mov    0x2026d6(%rip),%edx        # 604130 <target_id>
  401a5a:	48 8d 35 aa 15 00 00 	lea    0x15aa(%rip),%rsi        # 40300b <_IO_stdin_used+0x3ab>
  401a61:	b8 00 00 00 00       	mov    $0x0,%eax
  401a66:	e8 35 f3 ff ff       	callq  400da0 <sprintf@plt>
  401a6b:	48 83 c4 10          	add    $0x10,%rsp
  401a6f:	83 3d 12 2a 20 00 00 	cmpl   $0x0,0x202a12(%rip)        # 604488 <notify>
  401a76:	0f 84 b8 00 00 00    	je     401b34 <notify_server+0x14b>
  401a7c:	85 db                	test   %ebx,%ebx
  401a7e:	0f 84 a2 00 00 00    	je     401b26 <notify_server+0x13d>
  401a84:	48 8d 8c 24 00 20 00 	lea    0x2000(%rsp),%rcx
  401a8b:	00 
  401a8c:	49 89 e1             	mov    %rsp,%r9
  401a8f:	41 b8 00 00 00 00    	mov    $0x0,%r8d
  401a95:	48 8b 15 ac 26 20 00 	mov    0x2026ac(%rip),%rdx        # 604148 <lab>
  401a9c:	48 8b 35 ad 26 20 00 	mov    0x2026ad(%rip),%rsi        # 604150 <course>
  401aa3:	48 8b 3d 96 26 20 00 	mov    0x202696(%rip),%rdi        # 604140 <user_id>
  401aaa:	e8 6e 10 00 00       	callq  402b1d <driver_post>
  401aaf:	85 c0                	test   %eax,%eax
  401ab1:	78 55                	js     401b08 <notify_server+0x11f>
  401ab3:	48 8d 3d 96 16 00 00 	lea    0x1696(%rip),%rdi        # 403150 <_IO_stdin_used+0x4f0>
  401aba:	e8 71 f1 ff ff       	callq  400c30 <puts@plt>
  401abf:	48 8d 3d 6d 15 00 00 	lea    0x156d(%rip),%rdi        # 403033 <_IO_stdin_used+0x3d3>
  401ac6:	e8 65 f1 ff ff       	callq  400c30 <puts@plt>
  401acb:	48 81 c4 08 40 00 00 	add    $0x4008,%rsp
  401ad2:	5b                   	pop    %rbx
  401ad3:	5d                   	pop    %rbp
  401ad4:	f3 c3                	repz retq 
  401ad6:	48 8d 3d 43 16 00 00 	lea    0x1643(%rip),%rdi        # 403120 <_IO_stdin_used+0x4c0>
  401add:	b8 00 00 00 00       	mov    $0x0,%eax
  401ae2:	e8 79 f1 ff ff       	callq  400c60 <printf@plt>
  401ae7:	bf 01 00 00 00       	mov    $0x1,%edi
  401aec:	e8 bf f2 ff ff       	callq  400db0 <exit@plt>
  401af1:	41 b8 ff ff ff ff    	mov    $0xffffffff,%r8d
  401af7:	e9 35 ff ff ff       	jmpq   401a31 <notify_server+0x48>
  401afc:	48 8d 2d 03 15 00 00 	lea    0x1503(%rip),%rbp        # 403006 <_IO_stdin_used+0x3a6>
  401b03:	e9 38 ff ff ff       	jmpq   401a40 <notify_server+0x57>
  401b08:	48 89 e6             	mov    %rsp,%rsi
  401b0b:	48 8d 3d 15 15 00 00 	lea    0x1515(%rip),%rdi        # 403027 <_IO_stdin_used+0x3c7>
  401b12:	b8 00 00 00 00       	mov    $0x0,%eax
  401b17:	e8 44 f1 ff ff       	callq  400c60 <printf@plt>
  401b1c:	bf 01 00 00 00       	mov    $0x1,%edi
  401b21:	e8 8a f2 ff ff       	callq  400db0 <exit@plt>
  401b26:	48 8d 3d 10 15 00 00 	lea    0x1510(%rip),%rdi        # 40303d <_IO_stdin_used+0x3dd>
  401b2d:	e8 fe f0 ff ff       	callq  400c30 <puts@plt>
  401b32:	eb 97                	jmp    401acb <notify_server+0xe2>
  401b34:	48 89 ee             	mov    %rbp,%rsi
  401b37:	48 8d 3d 4a 16 00 00 	lea    0x164a(%rip),%rdi        # 403188 <_IO_stdin_used+0x528>
  401b3e:	b8 00 00 00 00       	mov    $0x0,%eax
  401b43:	e8 18 f1 ff ff       	callq  400c60 <printf@plt>
  401b48:	48 8b 35 f1 25 20 00 	mov    0x2025f1(%rip),%rsi        # 604140 <user_id>
  401b4f:	48 8d 3d ee 14 00 00 	lea    0x14ee(%rip),%rdi        # 403044 <_IO_stdin_used+0x3e4>
  401b56:	b8 00 00 00 00       	mov    $0x0,%eax
  401b5b:	e8 00 f1 ff ff       	callq  400c60 <printf@plt>
  401b60:	48 8b 35 e9 25 20 00 	mov    0x2025e9(%rip),%rsi        # 604150 <course>
  401b67:	48 8d 3d e3 14 00 00 	lea    0x14e3(%rip),%rdi        # 403051 <_IO_stdin_used+0x3f1>
  401b6e:	b8 00 00 00 00       	mov    $0x0,%eax
  401b73:	e8 e8 f0 ff ff       	callq  400c60 <printf@plt>
  401b78:	48 8b 35 c9 25 20 00 	mov    0x2025c9(%rip),%rsi        # 604148 <lab>
  401b7f:	48 8d 3d d7 14 00 00 	lea    0x14d7(%rip),%rdi        # 40305d <_IO_stdin_used+0x3fd>
  401b86:	b8 00 00 00 00       	mov    $0x0,%eax
  401b8b:	e8 d0 f0 ff ff       	callq  400c60 <printf@plt>
  401b90:	48 8d b4 24 00 20 00 	lea    0x2000(%rsp),%rsi
  401b97:	00 
  401b98:	48 8d 3d c7 14 00 00 	lea    0x14c7(%rip),%rdi        # 403066 <_IO_stdin_used+0x406>
  401b9f:	b8 00 00 00 00       	mov    $0x0,%eax
  401ba4:	e8 b7 f0 ff ff       	callq  400c60 <printf@plt>
  401ba9:	e9 1d ff ff ff       	jmpq   401acb <notify_server+0xe2>

0000000000401bae <validate>:
  401bae:	53                   	push   %rbx
  401baf:	89 fb                	mov    %edi,%ebx
  401bb1:	83 3d 50 29 20 00 00 	cmpl   $0x0,0x202950(%rip)        # 604508 <is_checker>
  401bb8:	74 68                	je     401c22 <validate+0x74>
  401bba:	39 3d 3c 29 20 00    	cmp    %edi,0x20293c(%rip)        # 6044fc <vlevel>
  401bc0:	75 2d                	jne    401bef <validate+0x41>
  401bc2:	8b 35 30 29 20 00    	mov    0x202930(%rip),%esi        # 6044f8 <check_level>
  401bc8:	39 f7                	cmp    %esi,%edi
  401bca:	75 39                	jne    401c05 <validate+0x57>
  401bcc:	0f be 35 55 35 20 00 	movsbl 0x203555(%rip),%esi        # 605128 <target_prefix>
  401bd3:	48 8d 0d 46 29 20 00 	lea    0x202946(%rip),%rcx        # 604520 <gets_buf>
  401bda:	89 fa                	mov    %edi,%edx
  401bdc:	48 8d 3d ad 14 00 00 	lea    0x14ad(%rip),%rdi        # 403090 <_IO_stdin_used+0x430>
  401be3:	b8 00 00 00 00       	mov    $0x0,%eax
  401be8:	e8 73 f0 ff ff       	callq  400c60 <printf@plt>
  401bed:	5b                   	pop    %rbx
  401bee:	c3                   	retq   
  401bef:	48 8d 3d 7c 14 00 00 	lea    0x147c(%rip),%rdi        # 403072 <_IO_stdin_used+0x412>
  401bf6:	e8 35 f0 ff ff       	callq  400c30 <puts@plt>
  401bfb:	b8 00 00 00 00       	mov    $0x0,%eax
  401c00:	e8 5f fd ff ff       	callq  401964 <check_fail>
  401c05:	89 fa                	mov    %edi,%edx
  401c07:	48 8d 3d a2 15 00 00 	lea    0x15a2(%rip),%rdi        # 4031b0 <_IO_stdin_used+0x550>
  401c0e:	b8 00 00 00 00       	mov    $0x0,%eax
  401c13:	e8 48 f0 ff ff       	callq  400c60 <printf@plt>
  401c18:	b8 00 00 00 00       	mov    $0x0,%eax
  401c1d:	e8 42 fd ff ff       	callq  401964 <check_fail>
  401c22:	3b 3d d4 28 20 00    	cmp    0x2028d4(%rip),%edi        # 6044fc <vlevel>
  401c28:	74 1a                	je     401c44 <validate+0x96>
  401c2a:	48 8d 3d 41 14 00 00 	lea    0x1441(%rip),%rdi        # 403072 <_IO_stdin_used+0x412>
  401c31:	e8 fa ef ff ff       	callq  400c30 <puts@plt>
  401c36:	89 de                	mov    %ebx,%esi
  401c38:	bf 00 00 00 00       	mov    $0x0,%edi
  401c3d:	e8 a7 fd ff ff       	callq  4019e9 <notify_server>
  401c42:	eb a9                	jmp    401bed <validate+0x3f>
  401c44:	0f be 15 dd 34 20 00 	movsbl 0x2034dd(%rip),%edx        # 605128 <target_prefix>
  401c4b:	89 fe                	mov    %edi,%esi
  401c4d:	48 8d 3d 84 15 00 00 	lea    0x1584(%rip),%rdi        # 4031d8 <_IO_stdin_used+0x578>
  401c54:	b8 00 00 00 00       	mov    $0x0,%eax
  401c59:	e8 02 f0 ff ff       	callq  400c60 <printf@plt>
  401c5e:	89 de                	mov    %ebx,%esi
  401c60:	bf 01 00 00 00       	mov    $0x1,%edi
  401c65:	e8 7f fd ff ff       	callq  4019e9 <notify_server>
  401c6a:	eb 81                	jmp    401bed <validate+0x3f>

0000000000401c6c <fail>:
  401c6c:	48 83 ec 08          	sub    $0x8,%rsp
  401c70:	83 3d 91 28 20 00 00 	cmpl   $0x0,0x202891(%rip)        # 604508 <is_checker>
  401c77:	75 11                	jne    401c8a <fail+0x1e>
  401c79:	89 fe                	mov    %edi,%esi
  401c7b:	bf 00 00 00 00       	mov    $0x0,%edi
  401c80:	e8 64 fd ff ff       	callq  4019e9 <notify_server>
  401c85:	48 83 c4 08          	add    $0x8,%rsp
  401c89:	c3                   	retq   
  401c8a:	b8 00 00 00 00       	mov    $0x0,%eax
  401c8f:	e8 d0 fc ff ff       	callq  401964 <check_fail>

0000000000401c94 <bushandler>:
  401c94:	48 83 ec 08          	sub    $0x8,%rsp
  401c98:	83 3d 69 28 20 00 00 	cmpl   $0x0,0x202869(%rip)        # 604508 <is_checker>
  401c9f:	74 16                	je     401cb7 <bushandler+0x23>
  401ca1:	48 8d 3d fd 13 00 00 	lea    0x13fd(%rip),%rdi        # 4030a5 <_IO_stdin_used+0x445>
  401ca8:	e8 83 ef ff ff       	callq  400c30 <puts@plt>
  401cad:	b8 00 00 00 00       	mov    $0x0,%eax
  401cb2:	e8 ad fc ff ff       	callq  401964 <check_fail>
  401cb7:	48 8d 3d 52 15 00 00 	lea    0x1552(%rip),%rdi        # 403210 <_IO_stdin_used+0x5b0>
  401cbe:	e8 6d ef ff ff       	callq  400c30 <puts@plt>
  401cc3:	48 8d 3d e5 13 00 00 	lea    0x13e5(%rip),%rdi        # 4030af <_IO_stdin_used+0x44f>
  401cca:	e8 61 ef ff ff       	callq  400c30 <puts@plt>
  401ccf:	be 00 00 00 00       	mov    $0x0,%esi
  401cd4:	bf 00 00 00 00       	mov    $0x0,%edi
  401cd9:	e8 0b fd ff ff       	callq  4019e9 <notify_server>
  401cde:	bf 01 00 00 00       	mov    $0x1,%edi
  401ce3:	e8 c8 f0 ff ff       	callq  400db0 <exit@plt>

0000000000401ce8 <seghandler>:
  401ce8:	48 83 ec 08          	sub    $0x8,%rsp
  401cec:	83 3d 15 28 20 00 00 	cmpl   $0x0,0x202815(%rip)        # 604508 <is_checker>
  401cf3:	74 16                	je     401d0b <seghandler+0x23>
  401cf5:	48 8d 3d c9 13 00 00 	lea    0x13c9(%rip),%rdi        # 4030c5 <_IO_stdin_used+0x465>
  401cfc:	e8 2f ef ff ff       	callq  400c30 <puts@plt>
  401d01:	b8 00 00 00 00       	mov    $0x0,%eax
  401d06:	e8 59 fc ff ff       	callq  401964 <check_fail>
  401d0b:	48 8d 3d 1e 15 00 00 	lea    0x151e(%rip),%rdi        # 403230 <_IO_stdin_used+0x5d0>
  401d12:	e8 19 ef ff ff       	callq  400c30 <puts@plt>
  401d17:	48 8d 3d 91 13 00 00 	lea    0x1391(%rip),%rdi        # 4030af <_IO_stdin_used+0x44f>
  401d1e:	e8 0d ef ff ff       	callq  400c30 <puts@plt>
  401d23:	be 00 00 00 00       	mov    $0x0,%esi
  401d28:	bf 00 00 00 00       	mov    $0x0,%edi
  401d2d:	e8 b7 fc ff ff       	callq  4019e9 <notify_server>
  401d32:	bf 01 00 00 00       	mov    $0x1,%edi
  401d37:	e8 74 f0 ff ff       	callq  400db0 <exit@plt>

0000000000401d3c <illegalhandler>:
  401d3c:	48 83 ec 08          	sub    $0x8,%rsp
  401d40:	83 3d c1 27 20 00 00 	cmpl   $0x0,0x2027c1(%rip)        # 604508 <is_checker>
  401d47:	74 16                	je     401d5f <illegalhandler+0x23>
  401d49:	48 8d 3d 88 13 00 00 	lea    0x1388(%rip),%rdi        # 4030d8 <_IO_stdin_used+0x478>
  401d50:	e8 db ee ff ff       	callq  400c30 <puts@plt>
  401d55:	b8 00 00 00 00       	mov    $0x0,%eax
  401d5a:	e8 05 fc ff ff       	callq  401964 <check_fail>
  401d5f:	48 8d 3d f2 14 00 00 	lea    0x14f2(%rip),%rdi        # 403258 <_IO_stdin_used+0x5f8>
  401d66:	e8 c5 ee ff ff       	callq  400c30 <puts@plt>
  401d6b:	48 8d 3d 3d 13 00 00 	lea    0x133d(%rip),%rdi        # 4030af <_IO_stdin_used+0x44f>
  401d72:	e8 b9 ee ff ff       	callq  400c30 <puts@plt>
  401d77:	be 00 00 00 00       	mov    $0x0,%esi
  401d7c:	bf 00 00 00 00       	mov    $0x0,%edi
  401d81:	e8 63 fc ff ff       	callq  4019e9 <notify_server>
  401d86:	bf 01 00 00 00       	mov    $0x1,%edi
  401d8b:	e8 20 f0 ff ff       	callq  400db0 <exit@plt>

0000000000401d90 <sigalrmhandler>:
  401d90:	48 83 ec 08          	sub    $0x8,%rsp
  401d94:	83 3d 6d 27 20 00 00 	cmpl   $0x0,0x20276d(%rip)        # 604508 <is_checker>
  401d9b:	74 16                	je     401db3 <sigalrmhandler+0x23>
  401d9d:	48 8d 3d 48 13 00 00 	lea    0x1348(%rip),%rdi        # 4030ec <_IO_stdin_used+0x48c>
  401da4:	e8 87 ee ff ff       	callq  400c30 <puts@plt>
  401da9:	b8 00 00 00 00       	mov    $0x0,%eax
  401dae:	e8 b1 fb ff ff       	callq  401964 <check_fail>
  401db3:	be 05 00 00 00       	mov    $0x5,%esi
  401db8:	48 8d 3d c9 14 00 00 	lea    0x14c9(%rip),%rdi        # 403288 <_IO_stdin_used+0x628>
  401dbf:	b8 00 00 00 00       	mov    $0x0,%eax
  401dc4:	e8 97 ee ff ff       	callq  400c60 <printf@plt>
  401dc9:	be 00 00 00 00       	mov    $0x0,%esi
  401dce:	bf 00 00 00 00       	mov    $0x0,%edi
  401dd3:	e8 11 fc ff ff       	callq  4019e9 <notify_server>
  401dd8:	bf 01 00 00 00       	mov    $0x1,%edi
  401ddd:	e8 ce ef ff ff       	callq  400db0 <exit@plt>

0000000000401de2 <launch>:
  401de2:	55                   	push   %rbp
  401de3:	48 89 e5             	mov    %rsp,%rbp
  401de6:	48 89 fa             	mov    %rdi,%rdx
  401de9:	48 8d 47 1e          	lea    0x1e(%rdi),%rax
  401ded:	48 83 e0 f0          	and    $0xfffffffffffffff0,%rax
  401df1:	48 29 c4             	sub    %rax,%rsp
  401df4:	48 8d 7c 24 0f       	lea    0xf(%rsp),%rdi
  401df9:	48 83 e7 f0          	and    $0xfffffffffffffff0,%rdi
  401dfd:	be f4 00 00 00       	mov    $0xf4,%esi
  401e02:	e8 69 ee ff ff       	callq  400c70 <memset@plt>
  401e07:	48 8b 05 92 26 20 00 	mov    0x202692(%rip),%rax        # 6044a0 <stdin@@GLIBC_2.2.5>
  401e0e:	48 39 05 db 26 20 00 	cmp    %rax,0x2026db(%rip)        # 6044f0 <infile>
  401e15:	74 2b                	je     401e42 <launch+0x60>
  401e17:	c7 05 db 26 20 00 00 	movl   $0x0,0x2026db(%rip)        # 6044fc <vlevel>
  401e1e:	00 00 00 
  401e21:	b8 00 00 00 00       	mov    $0x0,%eax
  401e26:	e8 a3 fa ff ff       	callq  4018ce <test>
  401e2b:	83 3d d6 26 20 00 00 	cmpl   $0x0,0x2026d6(%rip)        # 604508 <is_checker>
  401e32:	75 21                	jne    401e55 <launch+0x73>
  401e34:	48 8d 3d d1 12 00 00 	lea    0x12d1(%rip),%rdi        # 40310c <_IO_stdin_used+0x4ac>
  401e3b:	e8 f0 ed ff ff       	callq  400c30 <puts@plt>
  401e40:	c9                   	leaveq 
  401e41:	c3                   	retq   
  401e42:	48 8d 3d ab 12 00 00 	lea    0x12ab(%rip),%rdi        # 4030f4 <_IO_stdin_used+0x494>
  401e49:	b8 00 00 00 00       	mov    $0x0,%eax
  401e4e:	e8 0d ee ff ff       	callq  400c60 <printf@plt>
  401e53:	eb c2                	jmp    401e17 <launch+0x35>
  401e55:	48 8d 3d a5 12 00 00 	lea    0x12a5(%rip),%rdi        # 403101 <_IO_stdin_used+0x4a1>
  401e5c:	e8 cf ed ff ff       	callq  400c30 <puts@plt>
  401e61:	b8 00 00 00 00       	mov    $0x0,%eax
  401e66:	e8 f9 fa ff ff       	callq  401964 <check_fail>

0000000000401e6b <stable_launch>:
  401e6b:	53                   	push   %rbx
  401e6c:	48 89 3d 75 26 20 00 	mov    %rdi,0x202675(%rip)        # 6044e8 <global_offset>
  401e73:	41 b9 00 00 00 00    	mov    $0x0,%r9d
  401e79:	41 b8 00 00 00 00    	mov    $0x0,%r8d
  401e7f:	b9 32 01 00 00       	mov    $0x132,%ecx
  401e84:	ba 07 00 00 00       	mov    $0x7,%edx
  401e89:	be 00 00 10 00       	mov    $0x100000,%esi
  401e8e:	bf 00 60 58 55       	mov    $0x55586000,%edi
  401e93:	e8 b8 ed ff ff       	callq  400c50 <mmap@plt>
  401e98:	48 89 c3             	mov    %rax,%rbx
  401e9b:	48 3d 00 60 58 55    	cmp    $0x55586000,%rax
  401ea1:	75 43                	jne    401ee6 <stable_launch+0x7b>
  401ea3:	48 8d 90 f8 ff 0f 00 	lea    0xffff8(%rax),%rdx
  401eaa:	48 89 15 7f 32 20 00 	mov    %rdx,0x20327f(%rip)        # 605130 <stack_top>
  401eb1:	48 89 e0             	mov    %rsp,%rax
  401eb4:	48 89 d4             	mov    %rdx,%rsp
  401eb7:	48 89 c2             	mov    %rax,%rdx
  401eba:	48 89 15 1f 26 20 00 	mov    %rdx,0x20261f(%rip)        # 6044e0 <global_save_stack>
  401ec1:	48 8b 3d 20 26 20 00 	mov    0x202620(%rip),%rdi        # 6044e8 <global_offset>
  401ec8:	e8 15 ff ff ff       	callq  401de2 <launch>
  401ecd:	48 8b 05 0c 26 20 00 	mov    0x20260c(%rip),%rax        # 6044e0 <global_save_stack>
  401ed4:	48 89 c4             	mov    %rax,%rsp
  401ed7:	be 00 00 10 00       	mov    $0x100000,%esi
  401edc:	48 89 df             	mov    %rbx,%rdi
  401edf:	e8 5c ee ff ff       	callq  400d40 <munmap@plt>
  401ee4:	5b                   	pop    %rbx
  401ee5:	c3                   	retq   
  401ee6:	be 00 00 10 00       	mov    $0x100000,%esi
  401eeb:	48 89 c7             	mov    %rax,%rdi
  401eee:	e8 4d ee ff ff       	callq  400d40 <munmap@plt>
  401ef3:	ba 00 60 58 55       	mov    $0x55586000,%edx
  401ef8:	48 8d 35 c1 13 00 00 	lea    0x13c1(%rip),%rsi        # 4032c0 <_IO_stdin_used+0x660>
  401eff:	48 8b 3d ba 25 20 00 	mov    0x2025ba(%rip),%rdi        # 6044c0 <stderr@@GLIBC_2.2.5>
  401f06:	b8 00 00 00 00       	mov    $0x0,%eax
  401f0b:	e8 c0 ed ff ff       	callq  400cd0 <fprintf@plt>
  401f10:	bf 01 00 00 00       	mov    $0x1,%edi
  401f15:	e8 96 ee ff ff       	callq  400db0 <exit@plt>

0000000000401f1a <rio_readinitb>:
  401f1a:	89 37                	mov    %esi,(%rdi)
  401f1c:	c7 47 04 00 00 00 00 	movl   $0x0,0x4(%rdi)
  401f23:	48 8d 47 10          	lea    0x10(%rdi),%rax
  401f27:	48 89 47 08          	mov    %rax,0x8(%rdi)
  401f2b:	c3                   	retq   

0000000000401f2c <sigalrm_handler>:
  401f2c:	48 83 ec 08          	sub    $0x8,%rsp
  401f30:	ba 00 00 00 00       	mov    $0x0,%edx
  401f35:	48 8d 35 c4 13 00 00 	lea    0x13c4(%rip),%rsi        # 403300 <trans_char+0x10>
  401f3c:	48 8b 3d 7d 25 20 00 	mov    0x20257d(%rip),%rdi        # 6044c0 <stderr@@GLIBC_2.2.5>
  401f43:	b8 00 00 00 00       	mov    $0x0,%eax
  401f48:	e8 83 ed ff ff       	callq  400cd0 <fprintf@plt>
  401f4d:	bf 01 00 00 00       	mov    $0x1,%edi
  401f52:	e8 59 ee ff ff       	callq  400db0 <exit@plt>

0000000000401f57 <urlencode>:
  401f57:	41 54                	push   %r12
  401f59:	55                   	push   %rbp
  401f5a:	53                   	push   %rbx
  401f5b:	48 83 ec 10          	sub    $0x10,%rsp
  401f5f:	48 89 fb             	mov    %rdi,%rbx
  401f62:	48 89 f5             	mov    %rsi,%rbp
  401f65:	b8 00 00 00 00       	mov    $0x0,%eax
  401f6a:	48 c7 c1 ff ff ff ff 	mov    $0xffffffffffffffff,%rcx
  401f71:	f2 ae                	repnz scas %es:(%rdi),%al
  401f73:	48 f7 d1             	not    %rcx
  401f76:	8d 41 ff             	lea    -0x1(%rcx),%eax
  401f79:	eb 0e                	jmp    401f89 <urlencode+0x32>
  401f7b:	88 55 00             	mov    %dl,0x0(%rbp)
  401f7e:	48 8d 6d 01          	lea    0x1(%rbp),%rbp
  401f82:	48 83 c3 01          	add    $0x1,%rbx
  401f86:	44 89 e0             	mov    %r12d,%eax
  401f89:	44 8d 60 ff          	lea    -0x1(%rax),%r12d
  401f8d:	85 c0                	test   %eax,%eax
  401f8f:	0f 84 95 00 00 00    	je     40202a <urlencode+0xd3>
  401f95:	0f b6 13             	movzbl (%rbx),%edx
  401f98:	80 fa 2a             	cmp    $0x2a,%dl
  401f9b:	0f 94 c1             	sete   %cl
  401f9e:	80 fa 2d             	cmp    $0x2d,%dl
  401fa1:	0f 94 c0             	sete   %al
  401fa4:	08 c1                	or     %al,%cl
  401fa6:	75 d3                	jne    401f7b <urlencode+0x24>
  401fa8:	80 fa 2e             	cmp    $0x2e,%dl
  401fab:	74 ce                	je     401f7b <urlencode+0x24>
  401fad:	80 fa 5f             	cmp    $0x5f,%dl
  401fb0:	74 c9                	je     401f7b <urlencode+0x24>
  401fb2:	8d 42 d0             	lea    -0x30(%rdx),%eax
  401fb5:	3c 09                	cmp    $0x9,%al
  401fb7:	76 c2                	jbe    401f7b <urlencode+0x24>
  401fb9:	8d 42 bf             	lea    -0x41(%rdx),%eax
  401fbc:	3c 19                	cmp    $0x19,%al
  401fbe:	76 bb                	jbe    401f7b <urlencode+0x24>
  401fc0:	8d 42 9f             	lea    -0x61(%rdx),%eax
  401fc3:	3c 19                	cmp    $0x19,%al
  401fc5:	76 b4                	jbe    401f7b <urlencode+0x24>
  401fc7:	80 fa 20             	cmp    $0x20,%dl
  401fca:	74 4c                	je     402018 <urlencode+0xc1>
  401fcc:	8d 42 e0             	lea    -0x20(%rdx),%eax
  401fcf:	3c 5f                	cmp    $0x5f,%al
  401fd1:	0f 96 c1             	setbe  %cl
  401fd4:	80 fa 09             	cmp    $0x9,%dl
  401fd7:	0f 94 c0             	sete   %al
  401fda:	08 c1                	or     %al,%cl
  401fdc:	74 47                	je     402025 <urlencode+0xce>
  401fde:	0f b6 d2             	movzbl %dl,%edx
  401fe1:	48 8d 7c 24 08       	lea    0x8(%rsp),%rdi
  401fe6:	48 8d 35 ab 13 00 00 	lea    0x13ab(%rip),%rsi        # 403398 <trans_char+0xa8>
  401fed:	b8 00 00 00 00       	mov    $0x0,%eax
  401ff2:	e8 a9 ed ff ff       	callq  400da0 <sprintf@plt>
  401ff7:	0f b6 44 24 08       	movzbl 0x8(%rsp),%eax
  401ffc:	88 45 00             	mov    %al,0x0(%rbp)
  401fff:	0f b6 44 24 09       	movzbl 0x9(%rsp),%eax
  402004:	88 45 01             	mov    %al,0x1(%rbp)
  402007:	0f b6 44 24 0a       	movzbl 0xa(%rsp),%eax
  40200c:	88 45 02             	mov    %al,0x2(%rbp)
  40200f:	48 8d 6d 03          	lea    0x3(%rbp),%rbp
  402013:	e9 6a ff ff ff       	jmpq   401f82 <urlencode+0x2b>
  402018:	c6 45 00 2b          	movb   $0x2b,0x0(%rbp)
  40201c:	48 8d 6d 01          	lea    0x1(%rbp),%rbp
  402020:	e9 5d ff ff ff       	jmpq   401f82 <urlencode+0x2b>
  402025:	b8 ff ff ff ff       	mov    $0xffffffff,%eax
  40202a:	48 83 c4 10          	add    $0x10,%rsp
  40202e:	5b                   	pop    %rbx
  40202f:	5d                   	pop    %rbp
  402030:	41 5c                	pop    %r12
  402032:	c3                   	retq   

0000000000402033 <rio_writen>:
  402033:	41 55                	push   %r13
  402035:	41 54                	push   %r12
  402037:	55                   	push   %rbp
  402038:	53                   	push   %rbx
  402039:	48 83 ec 08          	sub    $0x8,%rsp
  40203d:	41 89 fc             	mov    %edi,%r12d
  402040:	49 89 d5             	mov    %rdx,%r13
  402043:	48 89 f5             	mov    %rsi,%rbp
  402046:	48 89 d3             	mov    %rdx,%rbx
  402049:	eb 06                	jmp    402051 <rio_writen+0x1e>
  40204b:	48 29 c3             	sub    %rax,%rbx
  40204e:	48 01 c5             	add    %rax,%rbp
  402051:	48 85 db             	test   %rbx,%rbx
  402054:	74 24                	je     40207a <rio_writen+0x47>
  402056:	48 89 da             	mov    %rbx,%rdx
  402059:	48 89 ee             	mov    %rbp,%rsi
  40205c:	44 89 e7             	mov    %r12d,%edi
  40205f:	e8 dc eb ff ff       	callq  400c40 <write@plt>
  402064:	48 85 c0             	test   %rax,%rax
  402067:	7f e2                	jg     40204b <rio_writen+0x18>
  402069:	e8 82 eb ff ff       	callq  400bf0 <__errno_location@plt>
  40206e:	83 38 04             	cmpl   $0x4,(%rax)
  402071:	75 15                	jne    402088 <rio_writen+0x55>
  402073:	b8 00 00 00 00       	mov    $0x0,%eax
  402078:	eb d1                	jmp    40204b <rio_writen+0x18>
  40207a:	4c 89 e8             	mov    %r13,%rax
  40207d:	48 83 c4 08          	add    $0x8,%rsp
  402081:	5b                   	pop    %rbx
  402082:	5d                   	pop    %rbp
  402083:	41 5c                	pop    %r12
  402085:	41 5d                	pop    %r13
  402087:	c3                   	retq   
  402088:	48 c7 c0 ff ff ff ff 	mov    $0xffffffffffffffff,%rax
  40208f:	eb ec                	jmp    40207d <rio_writen+0x4a>

0000000000402091 <rio_read>:
  402091:	41 55                	push   %r13
  402093:	41 54                	push   %r12
  402095:	55                   	push   %rbp
  402096:	53                   	push   %rbx
  402097:	48 83 ec 08          	sub    $0x8,%rsp
  40209b:	48 89 fb             	mov    %rdi,%rbx
  40209e:	49 89 f5             	mov    %rsi,%r13
  4020a1:	49 89 d4             	mov    %rdx,%r12
  4020a4:	eb 0a                	jmp    4020b0 <rio_read+0x1f>
  4020a6:	e8 45 eb ff ff       	callq  400bf0 <__errno_location@plt>
  4020ab:	83 38 04             	cmpl   $0x4,(%rax)
  4020ae:	75 5c                	jne    40210c <rio_read+0x7b>
  4020b0:	8b 6b 04             	mov    0x4(%rbx),%ebp
  4020b3:	85 ed                	test   %ebp,%ebp
  4020b5:	7f 24                	jg     4020db <rio_read+0x4a>
  4020b7:	48 8d 6b 10          	lea    0x10(%rbx),%rbp
  4020bb:	ba 00 20 00 00       	mov    $0x2000,%edx
  4020c0:	48 89 ee             	mov    %rbp,%rsi
  4020c3:	8b 3b                	mov    (%rbx),%edi
  4020c5:	e8 d6 eb ff ff       	callq  400ca0 <read@plt>
  4020ca:	89 43 04             	mov    %eax,0x4(%rbx)
  4020cd:	85 c0                	test   %eax,%eax
  4020cf:	78 d5                	js     4020a6 <rio_read+0x15>
  4020d1:	85 c0                	test   %eax,%eax
  4020d3:	74 40                	je     402115 <rio_read+0x84>
  4020d5:	48 89 6b 08          	mov    %rbp,0x8(%rbx)
  4020d9:	eb d5                	jmp    4020b0 <rio_read+0x1f>
  4020db:	89 e8                	mov    %ebp,%eax
  4020dd:	49 39 c4             	cmp    %rax,%r12
  4020e0:	77 03                	ja     4020e5 <rio_read+0x54>
  4020e2:	44 89 e5             	mov    %r12d,%ebp
  4020e5:	4c 63 e5             	movslq %ebp,%r12
  4020e8:	48 8b 73 08          	mov    0x8(%rbx),%rsi
  4020ec:	4c 89 e2             	mov    %r12,%rdx
  4020ef:	4c 89 ef             	mov    %r13,%rdi
  4020f2:	e8 f9 eb ff ff       	callq  400cf0 <memcpy@plt>
  4020f7:	4c 01 63 08          	add    %r12,0x8(%rbx)
  4020fb:	29 6b 04             	sub    %ebp,0x4(%rbx)
  4020fe:	4c 89 e0             	mov    %r12,%rax
  402101:	48 83 c4 08          	add    $0x8,%rsp
  402105:	5b                   	pop    %rbx
  402106:	5d                   	pop    %rbp
  402107:	41 5c                	pop    %r12
  402109:	41 5d                	pop    %r13
  40210b:	c3                   	retq   
  40210c:	48 c7 c0 ff ff ff ff 	mov    $0xffffffffffffffff,%rax
  402113:	eb ec                	jmp    402101 <rio_read+0x70>
  402115:	b8 00 00 00 00       	mov    $0x0,%eax
  40211a:	eb e5                	jmp    402101 <rio_read+0x70>

000000000040211c <rio_readlineb>:
  40211c:	41 55                	push   %r13
  40211e:	41 54                	push   %r12
  402120:	55                   	push   %rbp
  402121:	53                   	push   %rbx
  402122:	48 83 ec 18          	sub    $0x18,%rsp
  402126:	49 89 fd             	mov    %rdi,%r13
  402129:	49 89 d4             	mov    %rdx,%r12
  40212c:	48 89 f5             	mov    %rsi,%rbp
  40212f:	bb 01 00 00 00       	mov    $0x1,%ebx
  402134:	4c 39 e3             	cmp    %r12,%rbx
  402137:	73 47                	jae    402180 <rio_readlineb+0x64>
  402139:	48 8d 74 24 0f       	lea    0xf(%rsp),%rsi
  40213e:	ba 01 00 00 00       	mov    $0x1,%edx
  402143:	4c 89 ef             	mov    %r13,%rdi
  402146:	e8 46 ff ff ff       	callq  402091 <rio_read>
  40214b:	83 f8 01             	cmp    $0x1,%eax
  40214e:	75 1c                	jne    40216c <rio_readlineb+0x50>
  402150:	48 8d 45 01          	lea    0x1(%rbp),%rax
  402154:	0f b6 54 24 0f       	movzbl 0xf(%rsp),%edx
  402159:	88 55 00             	mov    %dl,0x0(%rbp)
  40215c:	80 7c 24 0f 0a       	cmpb   $0xa,0xf(%rsp)
  402161:	74 1a                	je     40217d <rio_readlineb+0x61>
  402163:	48 83 c3 01          	add    $0x1,%rbx
  402167:	48 89 c5             	mov    %rax,%rbp
  40216a:	eb c8                	jmp    402134 <rio_readlineb+0x18>
  40216c:	85 c0                	test   %eax,%eax
  40216e:	75 22                	jne    402192 <rio_readlineb+0x76>
  402170:	48 83 fb 01          	cmp    $0x1,%rbx
  402174:	75 0a                	jne    402180 <rio_readlineb+0x64>
  402176:	b8 00 00 00 00       	mov    $0x0,%eax
  40217b:	eb 0a                	jmp    402187 <rio_readlineb+0x6b>
  40217d:	48 89 c5             	mov    %rax,%rbp
  402180:	c6 45 00 00          	movb   $0x0,0x0(%rbp)
  402184:	48 89 d8             	mov    %rbx,%rax
  402187:	48 83 c4 18          	add    $0x18,%rsp
  40218b:	5b                   	pop    %rbx
  40218c:	5d                   	pop    %rbp
  40218d:	41 5c                	pop    %r12
  40218f:	41 5d                	pop    %r13
  402191:	c3                   	retq   
  402192:	48 c7 c0 ff ff ff ff 	mov    $0xffffffffffffffff,%rax
  402199:	eb ec                	jmp    402187 <rio_readlineb+0x6b>

000000000040219b <submitr>:
  40219b:	41 57                	push   %r15
  40219d:	41 56                	push   %r14
  40219f:	41 55                	push   %r13
  4021a1:	41 54                	push   %r12
  4021a3:	55                   	push   %rbp
  4021a4:	53                   	push   %rbx
  4021a5:	48 81 ec 58 a0 00 00 	sub    $0xa058,%rsp
  4021ac:	49 89 fd             	mov    %rdi,%r13
  4021af:	89 74 24 14          	mov    %esi,0x14(%rsp)
  4021b3:	49 89 d7             	mov    %rdx,%r15
  4021b6:	48 89 4c 24 08       	mov    %rcx,0x8(%rsp)
  4021bb:	4c 89 44 24 18       	mov    %r8,0x18(%rsp)
  4021c0:	4d 89 ce             	mov    %r9,%r14
  4021c3:	48 8b 9c 24 90 a0 00 	mov    0xa090(%rsp),%rbx
  4021ca:	00 
  4021cb:	c7 84 24 2c 20 00 00 	movl   $0x0,0x202c(%rsp)
  4021d2:	00 00 00 00 
  4021d6:	ba 00 00 00 00       	mov    $0x0,%edx
  4021db:	be 01 00 00 00       	mov    $0x1,%esi
  4021e0:	bf 02 00 00 00       	mov    $0x2,%edi
  4021e5:	e8 e6 eb ff ff       	callq  400dd0 <socket@plt>
  4021ea:	85 c0                	test   %eax,%eax
  4021ec:	0f 88 ca 01 00 00    	js     4023bc <submitr+0x221>
  4021f2:	89 c5                	mov    %eax,%ebp
  4021f4:	4c 89 ef             	mov    %r13,%rdi
  4021f7:	e8 c4 ea ff ff       	callq  400cc0 <gethostbyname@plt>
  4021fc:	48 85 c0             	test   %rax,%rax
  4021ff:	0f 84 05 02 00 00    	je     40240a <submitr+0x26f>
  402205:	4c 8d a4 24 40 a0 00 	lea    0xa040(%rsp),%r12
  40220c:	00 
  40220d:	48 c7 84 24 40 a0 00 	movq   $0x0,0xa040(%rsp)
  402214:	00 00 00 00 00 
  402219:	48 c7 84 24 48 a0 00 	movq   $0x0,0xa048(%rsp)
  402220:	00 00 00 00 00 
  402225:	66 c7 84 24 40 a0 00 	movw   $0x2,0xa040(%rsp)
  40222c:	00 02 00 
  40222f:	48 8b 48 18          	mov    0x18(%rax),%rcx
  402233:	48 63 50 14          	movslq 0x14(%rax),%rdx
  402237:	48 8d b4 24 44 a0 00 	lea    0xa044(%rsp),%rsi
  40223e:	00 
  40223f:	48 8b 39             	mov    (%rcx),%rdi
  402242:	e8 09 eb ff ff       	callq  400d50 <bcopy@plt>
  402247:	0f b7 44 24 14       	movzwl 0x14(%rsp),%eax
  40224c:	66 c1 c8 08          	ror    $0x8,%ax
  402250:	66 89 84 24 42 a0 00 	mov    %ax,0xa042(%rsp)
  402257:	00 
  402258:	ba 10 00 00 00       	mov    $0x10,%edx
  40225d:	4c 89 e6             	mov    %r12,%rsi
  402260:	89 ef                	mov    %ebp,%edi
  402262:	e8 59 eb ff ff       	callq  400dc0 <connect@plt>
  402267:	85 c0                	test   %eax,%eax
  402269:	0f 88 02 02 00 00    	js     402471 <submitr+0x2d6>
  40226f:	48 c7 c6 ff ff ff ff 	mov    $0xffffffffffffffff,%rsi
  402276:	b8 00 00 00 00       	mov    $0x0,%eax
  40227b:	48 89 f1             	mov    %rsi,%rcx
  40227e:	4c 89 f7             	mov    %r14,%rdi
  402281:	f2 ae                	repnz scas %es:(%rdi),%al
  402283:	48 f7 d1             	not    %rcx
  402286:	48 89 ca             	mov    %rcx,%rdx
  402289:	48 89 f1             	mov    %rsi,%rcx
  40228c:	4c 89 ff             	mov    %r15,%rdi
  40228f:	f2 ae                	repnz scas %es:(%rdi),%al
  402291:	48 f7 d1             	not    %rcx
  402294:	49 89 c8             	mov    %rcx,%r8
  402297:	48 89 f1             	mov    %rsi,%rcx
  40229a:	48 8b 7c 24 08       	mov    0x8(%rsp),%rdi
  40229f:	f2 ae                	repnz scas %es:(%rdi),%al
  4022a1:	48 f7 d1             	not    %rcx
  4022a4:	4d 8d 44 08 fe       	lea    -0x2(%r8,%rcx,1),%r8
  4022a9:	48 89 f1             	mov    %rsi,%rcx
  4022ac:	48 8b 7c 24 18       	mov    0x18(%rsp),%rdi
  4022b1:	f2 ae                	repnz scas %es:(%rdi),%al
  4022b3:	48 89 c8             	mov    %rcx,%rax
  4022b6:	48 f7 d0             	not    %rax
  4022b9:	49 8d 4c 00 ff       	lea    -0x1(%r8,%rax,1),%rcx
  4022be:	48 8d 44 52 fd       	lea    -0x3(%rdx,%rdx,2),%rax
  4022c3:	48 8d 84 01 80 00 00 	lea    0x80(%rcx,%rax,1),%rax
  4022ca:	00 
  4022cb:	48 3d 00 20 00 00    	cmp    $0x2000,%rax
  4022d1:	0f 87 f3 01 00 00    	ja     4024ca <submitr+0x32f>
  4022d7:	48 8d b4 24 30 40 00 	lea    0x4030(%rsp),%rsi
  4022de:	00 
  4022df:	b9 00 04 00 00       	mov    $0x400,%ecx
  4022e4:	b8 00 00 00 00       	mov    $0x0,%eax
  4022e9:	48 89 f7             	mov    %rsi,%rdi
  4022ec:	f3 48 ab             	rep stos %rax,%es:(%rdi)
  4022ef:	4c 89 f7             	mov    %r14,%rdi
  4022f2:	e8 60 fc ff ff       	callq  401f57 <urlencode>
  4022f7:	85 c0                	test   %eax,%eax
  4022f9:	0f 88 3d 02 00 00    	js     40253c <submitr+0x3a1>
  4022ff:	4c 8d a4 24 30 60 00 	lea    0x6030(%rsp),%r12
  402306:	00 
  402307:	4d 89 e9             	mov    %r13,%r9
  40230a:	4c 8d 84 24 30 40 00 	lea    0x4030(%rsp),%r8
  402311:	00 
  402312:	4c 89 f9             	mov    %r15,%rcx
  402315:	48 8b 54 24 08       	mov    0x8(%rsp),%rdx
  40231a:	48 8d 35 07 10 00 00 	lea    0x1007(%rip),%rsi        # 403328 <trans_char+0x38>
  402321:	4c 89 e7             	mov    %r12,%rdi
  402324:	b8 00 00 00 00       	mov    $0x0,%eax
  402329:	e8 72 ea ff ff       	callq  400da0 <sprintf@plt>
  40232e:	b8 00 00 00 00       	mov    $0x0,%eax
  402333:	48 c7 c1 ff ff ff ff 	mov    $0xffffffffffffffff,%rcx
  40233a:	4c 89 e7             	mov    %r12,%rdi
  40233d:	f2 ae                	repnz scas %es:(%rdi),%al
  40233f:	48 f7 d1             	not    %rcx
  402342:	48 8d 51 ff          	lea    -0x1(%rcx),%rdx
  402346:	4c 89 e6             	mov    %r12,%rsi
  402349:	89 ef                	mov    %ebp,%edi
  40234b:	e8 e3 fc ff ff       	callq  402033 <rio_writen>
  402350:	48 85 c0             	test   %rax,%rax
  402353:	0f 88 6d 02 00 00    	js     4025c6 <submitr+0x42b>
  402359:	4c 8d a4 24 30 80 00 	lea    0x8030(%rsp),%r12
  402360:	00 
  402361:	89 ee                	mov    %ebp,%esi
  402363:	4c 89 e7             	mov    %r12,%rdi
  402366:	e8 af fb ff ff       	callq  401f1a <rio_readinitb>
  40236b:	48 8d b4 24 30 60 00 	lea    0x6030(%rsp),%rsi
  402372:	00 
  402373:	ba 00 20 00 00       	mov    $0x2000,%edx
  402378:	4c 89 e7             	mov    %r12,%rdi
  40237b:	e8 9c fd ff ff       	callq  40211c <rio_readlineb>
  402380:	48 85 c0             	test   %rax,%rax
  402383:	0f 8e ab 02 00 00    	jle    402634 <submitr+0x499>
  402389:	48 8d 8c 24 2c 20 00 	lea    0x202c(%rsp),%rcx
  402390:	00 
  402391:	48 8d 94 24 30 20 00 	lea    0x2030(%rsp),%rdx
  402398:	00 
  402399:	48 8d bc 24 30 60 00 	lea    0x6030(%rsp),%rdi
  4023a0:	00 
  4023a1:	4c 8d 44 24 20       	lea    0x20(%rsp),%r8
  4023a6:	48 8d 35 f2 0f 00 00 	lea    0xff2(%rip),%rsi        # 40339f <trans_char+0xaf>
  4023ad:	b8 00 00 00 00       	mov    $0x0,%eax
  4023b2:	e8 79 e9 ff ff       	callq  400d30 <__isoc99_sscanf@plt>
  4023b7:	e9 9f 03 00 00       	jmpq   40275b <submitr+0x5c0>
  4023bc:	48 b8 45 72 72 6f 72 	movabs $0x43203a726f727245,%rax
  4023c3:	3a 20 43 
  4023c6:	48 89 03             	mov    %rax,(%rbx)
  4023c9:	48 b8 6c 69 65 6e 74 	movabs $0x6e7520746e65696c,%rax
  4023d0:	20 75 6e 
  4023d3:	48 89 43 08          	mov    %rax,0x8(%rbx)
  4023d7:	48 b8 61 62 6c 65 20 	movabs $0x206f7420656c6261,%rax
  4023de:	74 6f 20 
  4023e1:	48 89 43 10          	mov    %rax,0x10(%rbx)
  4023e5:	48 b8 63 72 65 61 74 	movabs $0x7320657461657263,%rax
  4023ec:	65 20 73 
  4023ef:	48 89 43 18          	mov    %rax,0x18(%rbx)
  4023f3:	c7 43 20 6f 63 6b 65 	movl   $0x656b636f,0x20(%rbx)
  4023fa:	66 c7 43 24 74 00    	movw   $0x74,0x24(%rbx)
  402400:	b8 ff ff ff ff       	mov    $0xffffffff,%eax
  402405:	e9 18 03 00 00       	jmpq   402722 <submitr+0x587>
  40240a:	48 b8 45 72 72 6f 72 	movabs $0x44203a726f727245,%rax
  402411:	3a 20 44 
  402414:	48 89 03             	mov    %rax,(%rbx)
  402417:	48 b8 4e 53 20 69 73 	movabs $0x6e7520736920534e,%rax
  40241e:	20 75 6e 
  402421:	48 89 43 08          	mov    %rax,0x8(%rbx)
  402425:	48 b8 61 62 6c 65 20 	movabs $0x206f7420656c6261,%rax
  40242c:	74 6f 20 
  40242f:	48 89 43 10          	mov    %rax,0x10(%rbx)
  402433:	48 b8 72 65 73 6f 6c 	movabs $0x2065766c6f736572,%rax
  40243a:	76 65 20 
  40243d:	48 89 43 18          	mov    %rax,0x18(%rbx)
  402441:	48 b8 73 65 72 76 65 	movabs $0x6120726576726573,%rax
  402448:	72 20 61 
  40244b:	48 89 43 20          	mov    %rax,0x20(%rbx)
  40244f:	c7 43 28 64 64 72 65 	movl   $0x65726464,0x28(%rbx)
  402456:	66 c7 43 2c 73 73    	movw   $0x7373,0x2c(%rbx)
  40245c:	c6 43 2e 00          	movb   $0x0,0x2e(%rbx)
  402460:	89 ef                	mov    %ebp,%edi
  402462:	e8 29 e8 ff ff       	callq  400c90 <close@plt>
  402467:	b8 ff ff ff ff       	mov    $0xffffffff,%eax
  40246c:	e9 b1 02 00 00       	jmpq   402722 <submitr+0x587>
  402471:	48 b8 45 72 72 6f 72 	movabs $0x55203a726f727245,%rax
  402478:	3a 20 55 
  40247b:	48 89 03             	mov    %rax,(%rbx)
  40247e:	48 b8 6e 61 62 6c 65 	movabs $0x6f7420656c62616e,%rax
  402485:	20 74 6f 
  402488:	48 89 43 08          	mov    %rax,0x8(%rbx)
  40248c:	48 b8 20 63 6f 6e 6e 	movabs $0x7463656e6e6f6320,%rax
  402493:	65 63 74 
  402496:	48 89 43 10          	mov    %rax,0x10(%rbx)
  40249a:	48 b8 20 74 6f 20 74 	movabs $0x20656874206f7420,%rax
  4024a1:	68 65 20 
  4024a4:	48 89 43 18          	mov    %rax,0x18(%rbx)
  4024a8:	c7 43 20 73 65 72 76 	movl   $0x76726573,0x20(%rbx)
  4024af:	66 c7 43 24 65 72    	movw   $0x7265,0x24(%rbx)
  4024b5:	c6 43 26 00          	movb   $0x0,0x26(%rbx)
  4024b9:	89 ef                	mov    %ebp,%edi
  4024bb:	e8 d0 e7 ff ff       	callq  400c90 <close@plt>
  4024c0:	b8 ff ff ff ff       	mov    $0xffffffff,%eax
  4024c5:	e9 58 02 00 00       	jmpq   402722 <submitr+0x587>
  4024ca:	48 b8 45 72 72 6f 72 	movabs $0x52203a726f727245,%rax
  4024d1:	3a 20 52 
  4024d4:	48 89 03             	mov    %rax,(%rbx)
  4024d7:	48 b8 65 73 75 6c 74 	movabs $0x747320746c757365,%rax
  4024de:	20 73 74 
  4024e1:	48 89 43 08          	mov    %rax,0x8(%rbx)
  4024e5:	48 b8 72 69 6e 67 20 	movabs $0x6f6f7420676e6972,%rax
  4024ec:	74 6f 6f 
  4024ef:	48 89 43 10          	mov    %rax,0x10(%rbx)
  4024f3:	48 b8 20 6c 61 72 67 	movabs $0x202e656772616c20,%rax
  4024fa:	65 2e 20 
  4024fd:	48 89 43 18          	mov    %rax,0x18(%rbx)
  402501:	48 b8 49 6e 63 72 65 	movabs $0x6573616572636e49,%rax
  402508:	61 73 65 
  40250b:	48 89 43 20          	mov    %rax,0x20(%rbx)
  40250f:	48 b8 20 53 55 42 4d 	movabs $0x5254494d42555320,%rax
  402516:	49 54 52 
  402519:	48 89 43 28          	mov    %rax,0x28(%rbx)
  40251d:	48 b8 5f 4d 41 58 42 	movabs $0x46554258414d5f,%rax
  402524:	55 46 00 
  402527:	48 89 43 30          	mov    %rax,0x30(%rbx)
  40252b:	89 ef                	mov    %ebp,%edi
  40252d:	e8 5e e7 ff ff       	callq  400c90 <close@plt>
  402532:	b8 ff ff ff ff       	mov    $0xffffffff,%eax
  402537:	e9 e6 01 00 00       	jmpq   402722 <submitr+0x587>
  40253c:	48 b8 45 72 72 6f 72 	movabs $0x52203a726f727245,%rax
  402543:	3a 20 52 
  402546:	48 89 03             	mov    %rax,(%rbx)
  402549:	48 b8 65 73 75 6c 74 	movabs $0x747320746c757365,%rax
  402550:	20 73 74 
  402553:	48 89 43 08          	mov    %rax,0x8(%rbx)
  402557:	48 b8 72 69 6e 67 20 	movabs $0x6e6f6320676e6972,%rax
  40255e:	63 6f 6e 
  402561:	48 89 43 10          	mov    %rax,0x10(%rbx)
  402565:	48 b8 74 61 69 6e 73 	movabs $0x6e6120736e696174,%rax
  40256c:	20 61 6e 
  40256f:	48 89 43 18          	mov    %rax,0x18(%rbx)
  402573:	48 b8 20 69 6c 6c 65 	movabs $0x6c6167656c6c6920,%rax
  40257a:	67 61 6c 
  40257d:	48 89 43 20          	mov    %rax,0x20(%rbx)
  402581:	48 b8 20 6f 72 20 75 	movabs $0x72706e7520726f20,%rax
  402588:	6e 70 72 
  40258b:	48 89 43 28          	mov    %rax,0x28(%rbx)
  40258f:	48 b8 69 6e 74 61 62 	movabs $0x20656c6261746e69,%rax
  402596:	6c 65 20 
  402599:	48 89 43 30          	mov    %rax,0x30(%rbx)
  40259d:	48 b8 63 68 61 72 61 	movabs $0x6574636172616863,%rax
  4025a4:	63 74 65 
  4025a7:	48 89 43 38          	mov    %rax,0x38(%rbx)
  4025ab:	66 c7 43 40 72 2e    	movw   $0x2e72,0x40(%rbx)
  4025b1:	c6 43 42 00          	movb   $0x0,0x42(%rbx)
  4025b5:	89 ef                	mov    %ebp,%edi
  4025b7:	e8 d4 e6 ff ff       	callq  400c90 <close@plt>
  4025bc:	b8 ff ff ff ff       	mov    $0xffffffff,%eax
  4025c1:	e9 5c 01 00 00       	jmpq   402722 <submitr+0x587>
  4025c6:	48 b8 45 72 72 6f 72 	movabs $0x43203a726f727245,%rax
  4025cd:	3a 20 43 
  4025d0:	48 89 03             	mov    %rax,(%rbx)
  4025d3:	48 b8 6c 69 65 6e 74 	movabs $0x6e7520746e65696c,%rax
  4025da:	20 75 6e 
  4025dd:	48 89 43 08          	mov    %rax,0x8(%rbx)
  4025e1:	48 b8 61 62 6c 65 20 	movabs $0x206f7420656c6261,%rax
  4025e8:	74 6f 20 
  4025eb:	48 89 43 10          	mov    %rax,0x10(%rbx)
  4025ef:	48 b8 77 72 69 74 65 	movabs $0x6f74206574697277,%rax
  4025f6:	20 74 6f 
  4025f9:	48 89 43 18          	mov    %rax,0x18(%rbx)
  4025fd:	48 b8 20 74 68 65 20 	movabs $0x7365722065687420,%rax
  402604:	72 65 73 
  402607:	48 89 43 20          	mov    %rax,0x20(%rbx)
  40260b:	48 b8 75 6c 74 20 73 	movabs $0x7672657320746c75,%rax
  402612:	65 72 76 
  402615:	48 89 43 28          	mov    %rax,0x28(%rbx)
  402619:	66 c7 43 30 65 72    	movw   $0x7265,0x30(%rbx)
  40261f:	c6 43 32 00          	movb   $0x0,0x32(%rbx)
  402623:	89 ef                	mov    %ebp,%edi
  402625:	e8 66 e6 ff ff       	callq  400c90 <close@plt>
  40262a:	b8 ff ff ff ff       	mov    $0xffffffff,%eax
  40262f:	e9 ee 00 00 00       	jmpq   402722 <submitr+0x587>
  402634:	48 b8 45 72 72 6f 72 	movabs $0x43203a726f727245,%rax
  40263b:	3a 20 43 
  40263e:	48 89 03             	mov    %rax,(%rbx)
  402641:	48 b8 6c 69 65 6e 74 	movabs $0x6e7520746e65696c,%rax
  402648:	20 75 6e 
  40264b:	48 89 43 08          	mov    %rax,0x8(%rbx)
  40264f:	48 b8 61 62 6c 65 20 	movabs $0x206f7420656c6261,%rax
  402656:	74 6f 20 
  402659:	48 89 43 10          	mov    %rax,0x10(%rbx)
  40265d:	48 b8 72 65 61 64 20 	movabs $0x7269662064616572,%rax
  402664:	66 69 72 
  402667:	48 89 43 18          	mov    %rax,0x18(%rbx)
  40266b:	48 b8 73 74 20 68 65 	movabs $0x6564616568207473,%rax
  402672:	61 64 65 
  402675:	48 89 43 20          	mov    %rax,0x20(%rbx)
  402679:	48 b8 72 20 66 72 6f 	movabs $0x72206d6f72662072,%rax
  402680:	6d 20 72 
  402683:	48 89 43 28          	mov    %rax,0x28(%rbx)
  402687:	48 b8 65 73 75 6c 74 	movabs $0x657320746c757365,%rax
  40268e:	20 73 65 
  402691:	48 89 43 30          	mov    %rax,0x30(%rbx)
  402695:	c7 43 38 72 76 65 72 	movl   $0x72657672,0x38(%rbx)
  40269c:	c6 43 3c 00          	movb   $0x0,0x3c(%rbx)
  4026a0:	89 ef                	mov    %ebp,%edi
  4026a2:	e8 e9 e5 ff ff       	callq  400c90 <close@plt>
  4026a7:	b8 ff ff ff ff       	mov    $0xffffffff,%eax
  4026ac:	eb 74                	jmp    402722 <submitr+0x587>
  4026ae:	48 b8 45 72 72 6f 72 	movabs $0x43203a726f727245,%rax
  4026b5:	3a 20 43 
  4026b8:	48 89 03             	mov    %rax,(%rbx)
  4026bb:	48 b8 6c 69 65 6e 74 	movabs $0x6e7520746e65696c,%rax
  4026c2:	20 75 6e 
  4026c5:	48 89 43 08          	mov    %rax,0x8(%rbx)
  4026c9:	48 b8 61 62 6c 65 20 	movabs $0x206f7420656c6261,%rax
  4026d0:	74 6f 20 
  4026d3:	48 89 43 10          	mov    %rax,0x10(%rbx)
  4026d7:	48 b8 72 65 61 64 20 	movabs $0x6165682064616572,%rax
  4026de:	68 65 61 
  4026e1:	48 89 43 18          	mov    %rax,0x18(%rbx)
  4026e5:	48 b8 64 65 72 73 20 	movabs $0x6f72662073726564,%rax
  4026ec:	66 72 6f 
  4026ef:	48 89 43 20          	mov    %rax,0x20(%rbx)
  4026f3:	48 b8 6d 20 74 68 65 	movabs $0x657220656874206d,%rax
  4026fa:	20 72 65 
  4026fd:	48 89 43 28          	mov    %rax,0x28(%rbx)
  402701:	48 b8 73 75 6c 74 20 	movabs $0x72657320746c7573,%rax
  402708:	73 65 72 
  40270b:	48 89 43 30          	mov    %rax,0x30(%rbx)
  40270f:	c7 43 38 76 65 72 00 	movl   $0x726576,0x38(%rbx)
  402716:	89 ef                	mov    %ebp,%edi
  402718:	e8 73 e5 ff ff       	callq  400c90 <close@plt>
  40271d:	b8 ff ff ff ff       	mov    $0xffffffff,%eax
  402722:	48 81 c4 58 a0 00 00 	add    $0xa058,%rsp
  402729:	5b                   	pop    %rbx
  40272a:	5d                   	pop    %rbp
  40272b:	41 5c                	pop    %r12
  40272d:	41 5d                	pop    %r13
  40272f:	41 5e                	pop    %r14
  402731:	41 5f                	pop    %r15
  402733:	c3                   	retq   
  402734:	85 c0                	test   %eax,%eax
  402736:	74 51                	je     402789 <submitr+0x5ee>
  402738:	48 8d b4 24 30 60 00 	lea    0x6030(%rsp),%rsi
  40273f:	00 
  402740:	48 8d bc 24 30 80 00 	lea    0x8030(%rsp),%rdi
  402747:	00 
  402748:	ba 00 20 00 00       	mov    $0x2000,%edx
  40274d:	e8 ca f9 ff ff       	callq  40211c <rio_readlineb>
  402752:	48 85 c0             	test   %rax,%rax
  402755:	0f 8e 53 ff ff ff    	jle    4026ae <submitr+0x513>
  40275b:	0f b6 94 24 30 60 00 	movzbl 0x6030(%rsp),%edx
  402762:	00 
  402763:	b8 0d 00 00 00       	mov    $0xd,%eax
  402768:	29 d0                	sub    %edx,%eax
  40276a:	75 c8                	jne    402734 <submitr+0x599>
  40276c:	0f b6 94 24 31 60 00 	movzbl 0x6031(%rsp),%edx
  402773:	00 
  402774:	b8 0a 00 00 00       	mov    $0xa,%eax
  402779:	29 d0                	sub    %edx,%eax
  40277b:	75 b7                	jne    402734 <submitr+0x599>
  40277d:	0f b6 84 24 32 60 00 	movzbl 0x6032(%rsp),%eax
  402784:	00 
  402785:	f7 d8                	neg    %eax
  402787:	eb ab                	jmp    402734 <submitr+0x599>
  402789:	48 8d b4 24 30 60 00 	lea    0x6030(%rsp),%rsi
  402790:	00 
  402791:	48 8d bc 24 30 80 00 	lea    0x8030(%rsp),%rdi
  402798:	00 
  402799:	ba 00 20 00 00       	mov    $0x2000,%edx
  40279e:	e8 79 f9 ff ff       	callq  40211c <rio_readlineb>
  4027a3:	48 85 c0             	test   %rax,%rax
  4027a6:	7e 67                	jle    40280f <submitr+0x674>
  4027a8:	8b 94 24 2c 20 00 00 	mov    0x202c(%rsp),%edx
  4027af:	81 fa c8 00 00 00    	cmp    $0xc8,%edx
  4027b5:	0f 85 d7 00 00 00    	jne    402892 <submitr+0x6f7>
  4027bb:	48 8d b4 24 30 60 00 	lea    0x6030(%rsp),%rsi
  4027c2:	00 
  4027c3:	48 89 df             	mov    %rbx,%rdi
  4027c6:	e8 55 e4 ff ff       	callq  400c20 <strcpy@plt>
  4027cb:	89 ef                	mov    %ebp,%edi
  4027cd:	e8 be e4 ff ff       	callq  400c90 <close@plt>
  4027d2:	0f b6 03             	movzbl (%rbx),%eax
  4027d5:	ba 4f 00 00 00       	mov    $0x4f,%edx
  4027da:	29 c2                	sub    %eax,%edx
  4027dc:	0f 85 da 00 00 00    	jne    4028bc <submitr+0x721>
  4027e2:	0f b6 4b 01          	movzbl 0x1(%rbx),%ecx
  4027e6:	b8 4b 00 00 00       	mov    $0x4b,%eax
  4027eb:	29 c8                	sub    %ecx,%eax
  4027ed:	0f 85 cb 00 00 00    	jne    4028be <submitr+0x723>
  4027f3:	0f b6 4b 02          	movzbl 0x2(%rbx),%ecx
  4027f7:	b8 0a 00 00 00       	mov    $0xa,%eax
  4027fc:	29 c8                	sub    %ecx,%eax
  4027fe:	0f 85 ba 00 00 00    	jne    4028be <submitr+0x723>
  402804:	0f b6 43 03          	movzbl 0x3(%rbx),%eax
  402808:	f7 d8                	neg    %eax
  40280a:	e9 af 00 00 00       	jmpq   4028be <submitr+0x723>
  40280f:	48 b8 45 72 72 6f 72 	movabs $0x43203a726f727245,%rax
  402816:	3a 20 43 
  402819:	48 89 03             	mov    %rax,(%rbx)
  40281c:	48 b8 6c 69 65 6e 74 	movabs $0x6e7520746e65696c,%rax
  402823:	20 75 6e 
  402826:	48 89 43 08          	mov    %rax,0x8(%rbx)
  40282a:	48 b8 61 62 6c 65 20 	movabs $0x206f7420656c6261,%rax
  402831:	74 6f 20 
  402834:	48 89 43 10          	mov    %rax,0x10(%rbx)
  402838:	48 b8 72 65 61 64 20 	movabs $0x6174732064616572,%rax
  40283f:	73 74 61 
  402842:	48 89 43 18          	mov    %rax,0x18(%rbx)
  402846:	48 b8 74 75 73 20 6d 	movabs $0x7373656d20737574,%rax
  40284d:	65 73 73 
  402850:	48 89 43 20          	mov    %rax,0x20(%rbx)
  402854:	48 b8 61 67 65 20 66 	movabs $0x6d6f726620656761,%rax
  40285b:	72 6f 6d 
  40285e:	48 89 43 28          	mov    %rax,0x28(%rbx)
  402862:	48 b8 20 72 65 73 75 	movabs $0x20746c7573657220,%rax
  402869:	6c 74 20 
  40286c:	48 89 43 30          	mov    %rax,0x30(%rbx)
  402870:	c7 43 38 73 65 72 76 	movl   $0x76726573,0x38(%rbx)
  402877:	66 c7 43 3c 65 72    	movw   $0x7265,0x3c(%rbx)
  40287d:	c6 43 3e 00          	movb   $0x0,0x3e(%rbx)
  402881:	89 ef                	mov    %ebp,%edi
  402883:	e8 08 e4 ff ff       	callq  400c90 <close@plt>
  402888:	b8 ff ff ff ff       	mov    $0xffffffff,%eax
  40288d:	e9 90 fe ff ff       	jmpq   402722 <submitr+0x587>
  402892:	48 8d 4c 24 20       	lea    0x20(%rsp),%rcx
  402897:	48 8d 35 ca 0a 00 00 	lea    0xaca(%rip),%rsi        # 403368 <trans_char+0x78>
  40289e:	48 89 df             	mov    %rbx,%rdi
  4028a1:	b8 00 00 00 00       	mov    $0x0,%eax
  4028a6:	e8 f5 e4 ff ff       	callq  400da0 <sprintf@plt>
  4028ab:	89 ef                	mov    %ebp,%edi
  4028ad:	e8 de e3 ff ff       	callq  400c90 <close@plt>
  4028b2:	b8 ff ff ff ff       	mov    $0xffffffff,%eax
  4028b7:	e9 66 fe ff ff       	jmpq   402722 <submitr+0x587>
  4028bc:	89 d0                	mov    %edx,%eax
  4028be:	f7 d8                	neg    %eax
  4028c0:	0f 84 5c fe ff ff    	je     402722 <submitr+0x587>
  4028c6:	b9 05 00 00 00       	mov    $0x5,%ecx
  4028cb:	48 8d 3d de 0a 00 00 	lea    0xade(%rip),%rdi        # 4033b0 <trans_char+0xc0>
  4028d2:	48 89 de             	mov    %rbx,%rsi
  4028d5:	f3 a6                	repz cmpsb %es:(%rdi),%ds:(%rsi)
  4028d7:	0f 97 c0             	seta   %al
  4028da:	0f 92 c1             	setb   %cl
  4028dd:	29 c8                	sub    %ecx,%eax
  4028df:	0f be c0             	movsbl %al,%eax
  4028e2:	85 c0                	test   %eax,%eax
  4028e4:	0f 84 38 fe ff ff    	je     402722 <submitr+0x587>
  4028ea:	85 d2                	test   %edx,%edx
  4028ec:	75 13                	jne    402901 <submitr+0x766>
  4028ee:	0f b6 43 01          	movzbl 0x1(%rbx),%eax
  4028f2:	ba 4b 00 00 00       	mov    $0x4b,%edx
  4028f7:	29 c2                	sub    %eax,%edx
  4028f9:	75 06                	jne    402901 <submitr+0x766>
  4028fb:	0f b6 53 02          	movzbl 0x2(%rbx),%edx
  4028ff:	f7 da                	neg    %edx
  402901:	89 d0                	mov    %edx,%eax
  402903:	f7 d8                	neg    %eax
  402905:	0f 84 17 fe ff ff    	je     402722 <submitr+0x587>
  40290b:	b8 ff ff ff ff       	mov    $0xffffffff,%eax
  402910:	e9 0d fe ff ff       	jmpq   402722 <submitr+0x587>

0000000000402915 <init_timeout>:
  402915:	85 ff                	test   %edi,%edi
  402917:	74 20                	je     402939 <init_timeout+0x24>
  402919:	53                   	push   %rbx
  40291a:	89 fb                	mov    %edi,%ebx
  40291c:	85 ff                	test   %edi,%edi
  40291e:	78 1b                	js     40293b <init_timeout+0x26>
  402920:	48 8d 35 05 f6 ff ff 	lea    -0x9fb(%rip),%rsi        # 401f2c <sigalrm_handler>
  402927:	bf 0e 00 00 00       	mov    $0xe,%edi
  40292c:	e8 7f e3 ff ff       	callq  400cb0 <signal@plt>
  402931:	89 df                	mov    %ebx,%edi
  402933:	e8 48 e3 ff ff       	callq  400c80 <alarm@plt>
  402938:	5b                   	pop    %rbx
  402939:	f3 c3                	repz retq 
  40293b:	bb 00 00 00 00       	mov    $0x0,%ebx
  402940:	eb de                	jmp    402920 <init_timeout+0xb>

0000000000402942 <init_driver>:
  402942:	41 54                	push   %r12
  402944:	55                   	push   %rbp
  402945:	53                   	push   %rbx
  402946:	48 83 ec 10          	sub    $0x10,%rsp
  40294a:	48 89 fd             	mov    %rdi,%rbp
  40294d:	be 01 00 00 00       	mov    $0x1,%esi
  402952:	bf 0d 00 00 00       	mov    $0xd,%edi
  402957:	e8 54 e3 ff ff       	callq  400cb0 <signal@plt>
  40295c:	be 01 00 00 00       	mov    $0x1,%esi
  402961:	bf 1d 00 00 00       	mov    $0x1d,%edi
  402966:	e8 45 e3 ff ff       	callq  400cb0 <signal@plt>
  40296b:	be 01 00 00 00       	mov    $0x1,%esi
  402970:	bf 1d 00 00 00       	mov    $0x1d,%edi
  402975:	e8 36 e3 ff ff       	callq  400cb0 <signal@plt>
  40297a:	ba 00 00 00 00       	mov    $0x0,%edx
  40297f:	be 01 00 00 00       	mov    $0x1,%esi
  402984:	bf 02 00 00 00       	mov    $0x2,%edi
  402989:	e8 42 e4 ff ff       	callq  400dd0 <socket@plt>
  40298e:	85 c0                	test   %eax,%eax
  402990:	0f 88 80 00 00 00    	js     402a16 <init_driver+0xd4>
  402996:	89 c3                	mov    %eax,%ebx
  402998:	48 8d 3d 4d 05 00 00 	lea    0x54d(%rip),%rdi        # 402eec <_IO_stdin_used+0x28c>
  40299f:	e8 1c e3 ff ff       	callq  400cc0 <gethostbyname@plt>
  4029a4:	48 85 c0             	test   %rax,%rax
  4029a7:	0f 84 b5 00 00 00    	je     402a62 <init_driver+0x120>
  4029ad:	48 c7 04 24 00 00 00 	movq   $0x0,(%rsp)
  4029b4:	00 
  4029b5:	48 c7 44 24 08 00 00 	movq   $0x0,0x8(%rsp)
  4029bc:	00 00 
  4029be:	66 c7 04 24 02 00    	movw   $0x2,(%rsp)
  4029c4:	48 8b 48 18          	mov    0x18(%rax),%rcx
  4029c8:	48 63 50 14          	movslq 0x14(%rax),%rdx
  4029cc:	48 8d 74 24 04       	lea    0x4(%rsp),%rsi
  4029d1:	48 8b 39             	mov    (%rcx),%rdi
  4029d4:	e8 77 e3 ff ff       	callq  400d50 <bcopy@plt>
  4029d9:	66 c7 44 24 02 3c 9a 	movw   $0x9a3c,0x2(%rsp)
  4029e0:	ba 10 00 00 00       	mov    $0x10,%edx
  4029e5:	48 89 e6             	mov    %rsp,%rsi
  4029e8:	89 df                	mov    %ebx,%edi
  4029ea:	e8 d1 e3 ff ff       	callq  400dc0 <connect@plt>
  4029ef:	85 c0                	test   %eax,%eax
  4029f1:	0f 88 d3 00 00 00    	js     402aca <init_driver+0x188>
  4029f7:	89 df                	mov    %ebx,%edi
  4029f9:	e8 92 e2 ff ff       	callq  400c90 <close@plt>
  4029fe:	66 c7 45 00 4f 4b    	movw   $0x4b4f,0x0(%rbp)
  402a04:	c6 45 02 00          	movb   $0x0,0x2(%rbp)
  402a08:	b8 00 00 00 00       	mov    $0x0,%eax
  402a0d:	48 83 c4 10          	add    $0x10,%rsp
  402a11:	5b                   	pop    %rbx
  402a12:	5d                   	pop    %rbp
  402a13:	41 5c                	pop    %r12
  402a15:	c3                   	retq   
  402a16:	48 b8 45 72 72 6f 72 	movabs $0x43203a726f727245,%rax
  402a1d:	3a 20 43 
  402a20:	48 89 45 00          	mov    %rax,0x0(%rbp)
  402a24:	48 b8 6c 69 65 6e 74 	movabs $0x6e7520746e65696c,%rax
  402a2b:	20 75 6e 
  402a2e:	48 89 45 08          	mov    %rax,0x8(%rbp)
  402a32:	48 b8 61 62 6c 65 20 	movabs $0x206f7420656c6261,%rax
  402a39:	74 6f 20 
  402a3c:	48 89 45 10          	mov    %rax,0x10(%rbp)
  402a40:	48 b8 63 72 65 61 74 	movabs $0x7320657461657263,%rax
  402a47:	65 20 73 
  402a4a:	48 89 45 18          	mov    %rax,0x18(%rbp)
  402a4e:	c7 45 20 6f 63 6b 65 	movl   $0x656b636f,0x20(%rbp)
  402a55:	66 c7 45 24 74 00    	movw   $0x74,0x24(%rbp)
  402a5b:	b8 ff ff ff ff       	mov    $0xffffffff,%eax
  402a60:	eb ab                	jmp    402a0d <init_driver+0xcb>
  402a62:	48 b8 45 72 72 6f 72 	movabs $0x44203a726f727245,%rax
  402a69:	3a 20 44 
  402a6c:	48 89 45 00          	mov    %rax,0x0(%rbp)
  402a70:	48 b8 4e 53 20 69 73 	movabs $0x6e7520736920534e,%rax
  402a77:	20 75 6e 
  402a7a:	48 89 45 08          	mov    %rax,0x8(%rbp)
  402a7e:	48 b8 61 62 6c 65 20 	movabs $0x206f7420656c6261,%rax
  402a85:	74 6f 20 
  402a88:	48 89 45 10          	mov    %rax,0x10(%rbp)
  402a8c:	48 b8 72 65 73 6f 6c 	movabs $0x2065766c6f736572,%rax
  402a93:	76 65 20 
  402a96:	48 89 45 18          	mov    %rax,0x18(%rbp)
  402a9a:	48 b8 73 65 72 76 65 	movabs $0x6120726576726573,%rax
  402aa1:	72 20 61 
  402aa4:	48 89 45 20          	mov    %rax,0x20(%rbp)
  402aa8:	c7 45 28 64 64 72 65 	movl   $0x65726464,0x28(%rbp)
  402aaf:	66 c7 45 2c 73 73    	movw   $0x7373,0x2c(%rbp)
  402ab5:	c6 45 2e 00          	movb   $0x0,0x2e(%rbp)
  402ab9:	89 df                	mov    %ebx,%edi
  402abb:	e8 d0 e1 ff ff       	callq  400c90 <close@plt>
  402ac0:	b8 ff ff ff ff       	mov    $0xffffffff,%eax
  402ac5:	e9 43 ff ff ff       	jmpq   402a0d <init_driver+0xcb>
  402aca:	48 b8 45 72 72 6f 72 	movabs $0x55203a726f727245,%rax
  402ad1:	3a 20 55 
  402ad4:	48 89 45 00          	mov    %rax,0x0(%rbp)
  402ad8:	48 b8 6e 61 62 6c 65 	movabs $0x6f7420656c62616e,%rax
  402adf:	20 74 6f 
  402ae2:	48 89 45 08          	mov    %rax,0x8(%rbp)
  402ae6:	48 b8 20 63 6f 6e 6e 	movabs $0x7463656e6e6f6320,%rax
  402aed:	65 63 74 
  402af0:	48 89 45 10          	mov    %rax,0x10(%rbp)
  402af4:	48 b8 20 74 6f 20 73 	movabs $0x76726573206f7420,%rax
  402afb:	65 72 76 
  402afe:	48 89 45 18          	mov    %rax,0x18(%rbp)
  402b02:	66 c7 45 20 65 72    	movw   $0x7265,0x20(%rbp)
  402b08:	c6 45 22 00          	movb   $0x0,0x22(%rbp)
  402b0c:	89 df                	mov    %ebx,%edi
  402b0e:	e8 7d e1 ff ff       	callq  400c90 <close@plt>
  402b13:	b8 ff ff ff ff       	mov    $0xffffffff,%eax
  402b18:	e9 f0 fe ff ff       	jmpq   402a0d <init_driver+0xcb>

0000000000402b1d <driver_post>:
  402b1d:	53                   	push   %rbx
  402b1e:	4c 89 cb             	mov    %r9,%rbx
  402b21:	45 85 c0             	test   %r8d,%r8d
  402b24:	75 18                	jne    402b3e <driver_post+0x21>
  402b26:	48 85 ff             	test   %rdi,%rdi
  402b29:	74 05                	je     402b30 <driver_post+0x13>
  402b2b:	80 3f 00             	cmpb   $0x0,(%rdi)
  402b2e:	75 32                	jne    402b62 <driver_post+0x45>
  402b30:	66 c7 03 4f 4b       	movw   $0x4b4f,(%rbx)
  402b35:	c6 43 02 00          	movb   $0x0,0x2(%rbx)
  402b39:	44 89 c0             	mov    %r8d,%eax
  402b3c:	5b                   	pop    %rbx
  402b3d:	c3                   	retq   
  402b3e:	48 89 ce             	mov    %rcx,%rsi
  402b41:	48 8d 3d 6d 08 00 00 	lea    0x86d(%rip),%rdi        # 4033b5 <trans_char+0xc5>
  402b48:	b8 00 00 00 00       	mov    $0x0,%eax
  402b4d:	e8 0e e1 ff ff       	callq  400c60 <printf@plt>
  402b52:	66 c7 03 4f 4b       	movw   $0x4b4f,(%rbx)
  402b57:	c6 43 02 00          	movb   $0x0,0x2(%rbx)
  402b5b:	b8 00 00 00 00       	mov    $0x0,%eax
  402b60:	eb da                	jmp    402b3c <driver_post+0x1f>
  402b62:	48 83 ec 08          	sub    $0x8,%rsp
  402b66:	41 51                	push   %r9
  402b68:	49 89 c9             	mov    %rcx,%r9
  402b6b:	49 89 d0             	mov    %rdx,%r8
  402b6e:	48 89 f9             	mov    %rdi,%rcx
  402b71:	48 89 f2             	mov    %rsi,%rdx
  402b74:	be 9a 3c 00 00       	mov    $0x3c9a,%esi
  402b79:	48 8d 3d 6c 03 00 00 	lea    0x36c(%rip),%rdi        # 402eec <_IO_stdin_used+0x28c>
  402b80:	e8 16 f6 ff ff       	callq  40219b <submitr>
  402b85:	48 83 c4 10          	add    $0x10,%rsp
  402b89:	eb b1                	jmp    402b3c <driver_post+0x1f>

0000000000402b8b <check>:
  402b8b:	89 f8                	mov    %edi,%eax
  402b8d:	c1 e8 1c             	shr    $0x1c,%eax
  402b90:	85 c0                	test   %eax,%eax
  402b92:	74 1d                	je     402bb1 <check+0x26>
  402b94:	b9 00 00 00 00       	mov    $0x0,%ecx
  402b99:	83 f9 1f             	cmp    $0x1f,%ecx
  402b9c:	7f 0d                	jg     402bab <check+0x20>
  402b9e:	89 f8                	mov    %edi,%eax
  402ba0:	d3 e8                	shr    %cl,%eax
  402ba2:	3c 0a                	cmp    $0xa,%al
  402ba4:	74 11                	je     402bb7 <check+0x2c>
  402ba6:	83 c1 08             	add    $0x8,%ecx
  402ba9:	eb ee                	jmp    402b99 <check+0xe>
  402bab:	b8 01 00 00 00       	mov    $0x1,%eax
  402bb0:	c3                   	retq   
  402bb1:	b8 00 00 00 00       	mov    $0x0,%eax
  402bb6:	c3                   	retq   
  402bb7:	b8 00 00 00 00       	mov    $0x0,%eax
  402bbc:	c3                   	retq   

0000000000402bbd <gencookie>:
  402bbd:	53                   	push   %rbx
  402bbe:	83 c7 01             	add    $0x1,%edi
  402bc1:	e8 3a e0 ff ff       	callq  400c00 <srandom@plt>
  402bc6:	e8 45 e1 ff ff       	callq  400d10 <random@plt>
  402bcb:	89 c3                	mov    %eax,%ebx
  402bcd:	89 c7                	mov    %eax,%edi
  402bcf:	e8 b7 ff ff ff       	callq  402b8b <check>
  402bd4:	85 c0                	test   %eax,%eax
  402bd6:	74 ee                	je     402bc6 <gencookie+0x9>
  402bd8:	89 d8                	mov    %ebx,%eax
  402bda:	5b                   	pop    %rbx
  402bdb:	c3                   	retq   
  402bdc:	0f 1f 40 00          	nopl   0x0(%rax)

0000000000402be0 <__libc_csu_init>:
  402be0:	41 57                	push   %r15
  402be2:	41 56                	push   %r14
  402be4:	41 89 ff             	mov    %edi,%r15d
  402be7:	41 55                	push   %r13
  402be9:	41 54                	push   %r12
  402beb:	4c 8d 25 16 12 20 00 	lea    0x201216(%rip),%r12        # 603e08 <__frame_dummy_init_array_entry>
  402bf2:	55                   	push   %rbp
  402bf3:	48 8d 2d 16 12 20 00 	lea    0x201216(%rip),%rbp        # 603e10 <__init_array_end>
  402bfa:	53                   	push   %rbx
  402bfb:	49 89 f6             	mov    %rsi,%r14
  402bfe:	49 89 d5             	mov    %rdx,%r13
  402c01:	4c 29 e5             	sub    %r12,%rbp
  402c04:	48 83 ec 08          	sub    $0x8,%rsp
  402c08:	48 c1 fd 03          	sar    $0x3,%rbp
  402c0c:	e8 9f df ff ff       	callq  400bb0 <_init>
  402c11:	48 85 ed             	test   %rbp,%rbp
  402c14:	74 20                	je     402c36 <__libc_csu_init+0x56>
  402c16:	31 db                	xor    %ebx,%ebx
  402c18:	0f 1f 84 00 00 00 00 	nopl   0x0(%rax,%rax,1)
  402c1f:	00 
  402c20:	4c 89 ea             	mov    %r13,%rdx
  402c23:	4c 89 f6             	mov    %r14,%rsi
  402c26:	44 89 ff             	mov    %r15d,%edi
  402c29:	41 ff 14 dc          	callq  *(%r12,%rbx,8)
  402c2d:	48 83 c3 01          	add    $0x1,%rbx
  402c31:	48 39 dd             	cmp    %rbx,%rbp
  402c34:	75 ea                	jne    402c20 <__libc_csu_init+0x40>
  402c36:	48 83 c4 08          	add    $0x8,%rsp
  402c3a:	5b                   	pop    %rbx
  402c3b:	5d                   	pop    %rbp
  402c3c:	41 5c                	pop    %r12
  402c3e:	41 5d                	pop    %r13
  402c40:	41 5e                	pop    %r14
  402c42:	41 5f                	pop    %r15
  402c44:	c3                   	retq   
  402c45:	90                   	nop
  402c46:	66 2e 0f 1f 84 00 00 	nopw   %cs:0x0(%rax,%rax,1)
  402c4d:	00 00 00 

0000000000402c50 <__libc_csu_fini>:
  402c50:	f3 c3                	repz retq 

Disassembly of section .fini:

0000000000402c54 <_fini>:
  402c54:	48 83 ec 08          	sub    $0x8,%rsp
  402c58:	48 83 c4 08          	add    $0x8,%rsp
  402c5c:	c3                   	retq   
